gplink-2.2.37 (Jan 22 2024)
Listing File Generated: 2024-9-23  15:39:32
 
 
Address  Value    Disassembly              Source
-------  -----    -----------              ------
                                           ;--------------------------------------------------------
                                           ; external declarations
                                           ;--------------------------------------------------------
                                           	extern	_INDF0bits
                                           	extern	_INDF1bits
                                           	extern	_INDF2bits
                                           	extern	_HIBYTEbits
                                           	extern	_FSR0bits
                                           	extern	_FSR1bits
                                           	extern	_PCLbits
                                           	extern	_PFLAGbits
                                           	extern	_MCRbits
                                           	extern	_INDF3bits
                                           	extern	_INTEbits
                                           	extern	_INTFbits
                                           	extern	_DRVCRbits
                                           	extern	_KBCRbits
                                           	extern	_IOP0bits
                                           	extern	_OEP0bits
                                           	extern	_PUP0bits
                                           	extern	_PDP0bits
                                           	extern	_IOP1bits
                                           	extern	_OEP1bits
                                           	extern	_PUP1bits
                                           	extern	_PDP1bits
                                           	extern	_T0CRbits
                                           	extern	_T0CNTbits
                                           	extern	_T0LOADbits
                                           	extern	_T0DATAbits
                                           	extern	_T1CRbits
                                           	extern	_T1CNTbits
                                           	extern	_T1LOADbits
                                           	extern	_T1DATAbits
                                           	extern	_T2CRbits
                                           	extern	_T2CNTbits
                                           	extern	_T2LOADbits
                                           	extern	_T2DATAbits
                                           	extern	_T3CRbits
                                           	extern	_T3CNTbits
                                           	extern	_T3LOADbits
                                           	extern	_PWM0DEbits
                                           	extern	_PWM1DEbits
                                           	extern	_PWM2DEbits
                                           	extern	_PWMCR0bits
                                           	extern	_PWMCR1bits
                                           	extern	_OSCMbits
                                           	extern	_LVDCRbits
                                           	extern	_ADCR0bits
                                           	extern	_ADCR1bits
                                           	extern	_ADCR2bits
                                           	extern	_ADRHbits
                                           	extern	_ADRLbits
                                           	extern	_ANSEL0bits
                                           	extern	_ANSEL1bits
                                           	extern	_OSCCALHbits
                                           	extern	_OSCCALLbits
                                           	extern	_INDF0
                                           	extern	_INDF1
                                           	extern	_INDF2
                                           	extern	_HIBYTE
                                           	extern	_FSR0
                                           	extern	_FSR1
                                           	extern	_PCL
                                           	extern	_PFLAG
                                           	extern	_MCR
                                           	extern	_INDF3
                                           	extern	_INTE
                                           	extern	_INTF
                                           	extern	_DRVCR
                                           	extern	_KBCR
                                           	extern	_IOP0
                                           	extern	_OEP0
                                           	extern	_PUP0
                                           	extern	_PDP0
                                           	extern	_IOP1
                                           	extern	_OEP1
                                           	extern	_PUP1
                                           	extern	_PDP1
                                           	extern	_T0CR
                                           	extern	_T0CNT
                                           	extern	_T0LOAD
                                           	extern	_T0DATA
                                           	extern	_T1CR
                                           	extern	_T1CNT
                                           	extern	_T1LOAD
                                           	extern	_T1DATA
                                           	extern	_T2CR
                                           	extern	_T2CNT
                                           	extern	_T2LOAD
                                           	extern	_T2DATA
                                           	extern	_T3CR
                                           	extern	_T3CNT
                                           	extern	_T3LOAD
                                           	extern	_PWM0DE
                                           	extern	_PWM1DE
                                           	extern	_PWM2DE
                                           	extern	_PWMCR0
                                           	extern	_PWMCR1
                                           	extern	_OSCM
                                           	extern	_LVDCR
                                           	extern	_ADCR0
                                           	extern	_ADCR1
                                           	extern	_ADCR2
                                           	extern	_ADRH
                                           	extern	_ADRL
                                           	extern	_ANSEL0
                                           	extern	_ANSEL1
                                           	extern	_OSCCALH
                                           	extern	_OSCCALL
                                           ;--------------------------------------------------------
                                           ; global declarations
                                           ;--------------------------------------------------------
                                           	global	_Sys_Init
                                           	global	_IO_Init
                                           	global	_CLR_RAM
                                           	global	_delay_ms
                                           	global	_send_32bits_data_by_irsir
                                           	global	_timer0_pwm_config
                                           	global	_timer1_pwm_config
                                           	global	_timer1_pwm_open
                                           	global	_timer1_pwm_close
                                           	global	_timer2_pwm_config
                                           	global	_key_config
                                           	global	_adc_config
                                           	global	_adc_sel_pin
                                           	global	_adc_get_val
                                           	global	_key_scan
                                           	global	_key_handle
                                           	global	_adc_scan_handle
                                           	global	_turn_dir_scan_handle
                                           	global	_shutdown_scan_handle
                                           	global	_low_power_scan_handle
                                           	global	_main
                                           	global	_int_isr
                                           	global	_mode_flag
                                           	global	_key_press_flag
                                           	global	_i
                                           	global	_adc_val
                                           	global	_turn_dir_ms_cnt
                                           	global	_shut_down_ms_cnt
                                           	global	_abuf
                                           	global	_statusbuf
                                           	global	_flag1
                                           	global	_charge_buf
                                           	global	_battery_refer_vol_buf
                                           
                                           	global STK06
                                           	global STK05
                                           	global STK04
                                           	global STK03
                                           	global STK02
                                           	global STK01
                                           	global STK00
                                           
                                           sharebank udata_ovr 0x0000
                                           STK06	res 1
                                           STK05	res 1
                                           STK04	res 1
                                           STK03	res 1
                                           STK02	res 1
                                           STK01	res 1
                                           STK00	res 1
                                           
                                           ;--------------------------------------------------------
                                           ; global definitions
                                           ;--------------------------------------------------------
                                           UD_MC32P7311_0	udata
                                           _mode_flag	res	1
                                           
                                           UD_MC32P7311_1	udata
                                           _key_press_flag	res	1
                                           
                                           UD_MC32P7311_2	udata
                                           _i	res	1
                                           
                                           UD_MC32P7311_3	udata
                                           _adc_val	res	2
                                           
                                           UD_MC32P7311_4	udata
                                           _turn_dir_ms_cnt	res	4
                                           
                                           UD_MC32P7311_5	udata
                                           _shut_down_ms_cnt	res	4
                                           
                                           UD_MC32P7311_6	udata
                                           _abuf	res	1
                                           
                                           UD_MC32P7311_7	udata
                                           _statusbuf	res	1
                                           
                                           UD_MC32P7311_8	udata
                                           _flag1	res	1
                                           
                                           ;--------------------------------------------------------
                                           ; absolute symbol definitions
                                           ;--------------------------------------------------------
                                           ;--------------------------------------------------------
                                           ; compiler-defined variables
                                           ;--------------------------------------------------------
                                           UDL_MC32P7311_0	udata
                                           r0x1011	res	1
                                           r0x1010	res	1
                                           r0x100F	res	1
                                           r0x100E	res	1
                                           r0x1012	res	1
                                           r0x1013	res	1
                                           r0x1014	res	1
                                           r0x1015	res	1
                                           r0x1016	res	1
                                           r0x1017	res	1
                                           r0x1018	res	1
                                           r0x1019	res	1
                                           r0x1022	res	1
                                           r0x1021	res	1
                                           r0x1020	res	1
                                           r0x101F	res	1
                                           r0x1023	res	1
                                           r0x1027	res	1
                                           r0x1026	res	1
                                           r0x1025	res	1
                                           r0x1024	res	1
                                           r0x101A	res	1
                                           r0x101B	res	1
                                           r0x101C	res	1
                                           r0x101D	res	1
                                           r0x101E	res	1
                                           r0x1028	res	1
                                           r0x1029	res	1
                                           ;--------------------------------------------------------
                                           ; initialized data
                                           ;--------------------------------------------------------
                                           
                                           ID_MC32P7311_0	code
                                           _charge_buf
000001   002b     dw      0x2b             	dw 0x2b
000002   0000     nop                      	dw 0x00
                                           
                                           
                                           ID_MC32P7311_1	code
                                           _battery_refer_vol_buf
000003   0000     nop                      	dw 0x00
                                           
                                           
                                           ;@Allocation info for local variables in function 'delay_ms'
                                           ;@delay_ms Sys_Init                  Allocated to registers ;size:2
                                           ;@delay_ms CLR_RAM                   Allocated to registers ;size:2
                                           ;@delay_ms IO_Init                   Allocated to registers ;size:2
                                           ;@delay_ms delay_ms                  Allocated to registers ;size:2
                                           ;@delay_ms INDF0bits                 Allocated to registers ;size:1
                                           ;@delay_ms INDF1bits                 Allocated to registers ;size:1
                                           ;@delay_ms INDF2bits                 Allocated to registers ;size:1
                                           ;@delay_ms HIBYTEbits                Allocated to registers ;size:1
                                           ;@delay_ms FSR0bits                  Allocated to registers ;size:1
                                           ;@delay_ms FSR1bits                  Allocated to registers ;size:1
                                           ;@delay_ms PCLbits                   Allocated to registers ;size:1
                                           ;@delay_ms PFLAGbits                 Allocated to registers ;size:1
                                           ;@delay_ms MCRbits                   Allocated to registers ;size:1
                                           ;@delay_ms INDF3bits                 Allocated to registers ;size:1
                                           ;@delay_ms INTEbits                  Allocated to registers ;size:1
                                           ;@delay_ms INTFbits                  Allocated to registers ;size:1
                                           ;@delay_ms DRVCRbits                 Allocated to registers ;size:1
                                           ;@delay_ms KBCRbits                  Allocated to registers ;size:1
                                           ;@delay_ms IOP0bits                  Allocated to registers ;size:1
                                           ;@delay_ms OEP0bits                  Allocated to registers ;size:1
                                           ;@delay_ms PUP0bits                  Allocated to registers ;size:1
                                           ;@delay_ms PDP0bits                  Allocated to registers ;size:1
                                           ;@delay_ms IOP1bits                  Allocated to registers ;size:1
                                           ;@delay_ms OEP1bits                  Allocated to registers ;size:1
                                           ;@delay_ms PUP1bits                  Allocated to registers ;size:1
                                           ;@delay_ms PDP1bits                  Allocated to registers ;size:1
                                           ;@delay_ms T0CRbits                  Allocated to registers ;size:1
                                           ;@delay_ms T0CNTbits                 Allocated to registers ;size:1
                                           ;@delay_ms T0LOADbits                Allocated to registers ;size:1
                                           ;@delay_ms T0DATAbits                Allocated to registers ;size:1
                                           ;@delay_ms T1CRbits                  Allocated to registers ;size:1
                                           ;@delay_ms T1CNTbits                 Allocated to registers ;size:1
                                           ;@delay_ms T1LOADbits                Allocated to registers ;size:1
                                           ;@delay_ms T1DATAbits                Allocated to registers ;size:1
                                           ;@delay_ms T2CRbits                  Allocated to registers ;size:1
                                           ;@delay_ms T2CNTbits                 Allocated to registers ;size:1
                                           ;@delay_ms T2LOADbits                Allocated to registers ;size:1
                                           ;@delay_ms T2DATAbits                Allocated to registers ;size:1
                                           ;@delay_ms T3CRbits                  Allocated to registers ;size:1
                                           ;@delay_ms T3CNTbits                 Allocated to registers ;size:1
                                           ;@delay_ms T3LOADbits                Allocated to registers ;size:1
                                           ;@delay_ms PWM0DEbits                Allocated to registers ;size:1
                                           ;@delay_ms PWM1DEbits                Allocated to registers ;size:1
                                           ;@delay_ms PWM2DEbits                Allocated to registers ;size:1
                                           ;@delay_ms PWMCR0bits                Allocated to registers ;size:1
                                           ;@delay_ms PWMCR1bits                Allocated to registers ;size:1
                                           ;@delay_ms OSCMbits                  Allocated to registers ;size:1
                                           ;@delay_ms LVDCRbits                 Allocated to registers ;size:1
                                           ;@delay_ms ADCR0bits                 Allocated to registers ;size:1
                                           ;@delay_ms ADCR1bits                 Allocated to registers ;size:1
                                           ;@delay_ms ADCR2bits                 Allocated to registers ;size:1
                                           ;@delay_ms ADRHbits                  Allocated to registers ;size:1
                                           ;@delay_ms ADRLbits                  Allocated to registers ;size:1
                                           ;@delay_ms ANSEL0bits                Allocated to registers ;size:1
                                           ;@delay_ms ANSEL1bits                Allocated to registers ;size:1
                                           ;@delay_ms OSCCALHbits               Allocated to registers ;size:1
                                           ;@delay_ms OSCCALLbits               Allocated to registers ;size:1
                                           ;@delay_ms mode_flag                 Allocated to registers ;size:1
                                           ;@delay_ms key_press_flag            Allocated to registers ;size:1
                                           ;@delay_ms i                         Allocated to registers ;size:1
                                           ;@delay_ms adc_val                   Allocated to registers ;size:2
                                           ;@delay_ms turn_dir_ms_cnt           Allocated to registers ;size:4
                                           ;@delay_ms shut_down_ms_cnt          Allocated to registers ;size:4
                                           ;@delay_ms abuf                      Allocated to registers ;size:1
                                           ;@delay_ms statusbuf                 Allocated to registers ;size:1
                                           ;@delay_ms flag1                     Allocated to registers ;size:1
                                           ;@delay_ms xms                       Allocated to registers ;size:4
                                           ;@delay_ms i                         Allocated to registers r0x1012 r0x1013 r0x1014 r0x1015 ;size:4
                                           ;@delay_ms INDF0                     Allocated to registers ;size:1
                                           ;@delay_ms INDF1                     Allocated to registers ;size:1
                                           ;@delay_ms INDF2                     Allocated to registers ;size:1
                                           ;@delay_ms HIBYTE                    Allocated to registers ;size:1
                                           ;@delay_ms FSR0                      Allocated to registers ;size:1
                                           ;@delay_ms FSR1                      Allocated to registers ;size:1
                                           ;@delay_ms PCL                       Allocated to registers ;size:1
                                           ;@delay_ms PFLAG                     Allocated to registers ;size:1
                                           ;@delay_ms MCR                       Allocated to registers ;size:1
                                           ;@delay_ms INDF3                     Allocated to registers ;size:1
                                           ;@delay_ms INTE                      Allocated to registers ;size:1
                                           ;@delay_ms INTF                      Allocated to registers ;size:1
                                           ;@delay_ms DRVCR                     Allocated to registers ;size:1
                                           ;@delay_ms KBCR                      Allocated to registers ;size:1
                                           ;@delay_ms IOP0                      Allocated to registers ;size:1
                                           ;@delay_ms OEP0                      Allocated to registers ;size:1
                                           ;@delay_ms PUP0                      Allocated to registers ;size:1
                                           ;@delay_ms PDP0                      Allocated to registers ;size:1
                                           ;@delay_ms IOP1                      Allocated to registers ;size:1
                                           ;@delay_ms OEP1                      Allocated to registers ;size:1
                                           ;@delay_ms PUP1                      Allocated to registers ;size:1
                                           ;@delay_ms PDP1                      Allocated to registers ;size:1
                                           ;@delay_ms T0CR                      Allocated to registers ;size:1
                                           ;@delay_ms T0CNT                     Allocated to registers ;size:1
                                           ;@delay_ms T0LOAD                    Allocated to registers ;size:1
                                           ;@delay_ms T0DATA                    Allocated to registers ;size:1
                                           ;@delay_ms T1CR                      Allocated to registers ;size:1
                                           ;@delay_ms T1CNT                     Allocated to registers ;size:1
                                           ;@delay_ms T1LOAD                    Allocated to registers ;size:1
                                           ;@delay_ms T1DATA                    Allocated to registers ;size:1
                                           ;@delay_ms T2CR                      Allocated to registers ;size:1
                                           ;@delay_ms T2CNT                     Allocated to registers ;size:1
                                           ;@delay_ms T2LOAD                    Allocated to registers ;size:1
                                           ;@delay_ms T2DATA                    Allocated to registers ;size:1
                                           ;@delay_ms T3CR                      Allocated to registers ;size:1
                                           ;@delay_ms T3CNT                     Allocated to registers ;size:1
                                           ;@delay_ms T3LOAD                    Allocated to registers ;size:1
                                           ;@delay_ms PWM0DE                    Allocated to registers ;size:1
                                           ;@delay_ms PWM1DE                    Allocated to registers ;size:1
                                           ;@delay_ms PWM2DE                    Allocated to registers ;size:1
                                           ;@delay_ms PWMCR0                    Allocated to registers ;size:1
                                           ;@delay_ms PWMCR1                    Allocated to registers ;size:1
                                           ;@delay_ms OSCM                      Allocated to registers ;size:1
                                           ;@delay_ms LVDCR                     Allocated to registers ;size:1
                                           ;@delay_ms ADCR0                     Allocated to registers ;size:1
                                           ;@delay_ms ADCR1                     Allocated to registers ;size:1
                                           ;@delay_ms ADCR2                     Allocated to registers ;size:1
                                           ;@delay_ms ADRH                      Allocated to registers ;size:1
                                           ;@delay_ms ADRL                      Allocated to registers ;size:1
                                           ;@delay_ms ANSEL0                    Allocated to registers ;size:1
                                           ;@delay_ms ANSEL1                    Allocated to registers ;size:1
                                           ;@delay_ms OSCCALH                   Allocated to registers ;size:1
                                           ;@delay_ms OSCCALL                   Allocated to registers ;size:1
                                           ;@end Allocation info for local variables in function 'delay_ms';
                                           ;@Allocation info for local variables in function 'send_32bits_data_by_irsir'
                                           ;@send_32bits_data_by_irsir send_data                 Allocated to registers r0x1022 r0x1021 r0x1020 r0x101F ;size:4
                                           ;@send_32bits_data_by_irsir i                         Allocated to registers r0x1023 ;size:1
                                           ;@end Allocation info for local variables in function 'send_32bits_data_by_irsir';
                                           ;@Allocation info for local variables in function 'CLR_RAM'
                                           ;@end Allocation info for local variables in function 'CLR_RAM';
                                           ;@Allocation info for local variables in function 'IO_Init'
                                           ;@end Allocation info for local variables in function 'IO_Init';
                                           ;@Allocation info for local variables in function 'timer0_pwm_config'
                                           ;@end Allocation info for local variables in function 'timer0_pwm_config';
                                           ;@Allocation info for local variables in function 'timer1_pwm_config'
                                           ;@end Allocation info for local variables in function 'timer1_pwm_config';
                                           ;@Allocation info for local variables in function 'timer1_pwm_open'
                                           ;@end Allocation info for local variables in function 'timer1_pwm_open';
                                           ;@Allocation info for local variables in function 'timer1_pwm_close'
                                           ;@end Allocation info for local variables in function 'timer1_pwm_close';
                                           ;@Allocation info for local variables in function 'timer2_pwm_config'
                                           ;@end Allocation info for local variables in function 'timer2_pwm_config';
                                           ;@Allocation info for local variables in function 'key_config'
                                           ;@end Allocation info for local variables in function 'key_config';
                                           ;@Allocation info for local variables in function 'adc_config'
                                           ;@end Allocation info for local variables in function 'adc_config';
                                           ;@Allocation info for local variables in function 'adc_sel_pin'
                                           ;@adc_sel_pin adc_pin                   Allocated to registers r0x101A ;size:1
                                           ;@end Allocation info for local variables in function 'adc_sel_pin';
                                           ;@Allocation info for local variables in function 'adc_get_val'
                                           ;@adc_get_val cnt                       Allocated to registers r0x1014 ;size:1
                                           ;@adc_get_val g_temp_value              Allocated to registers r0x1015 r0x1016 ;size:2
                                           ;@adc_get_val g_tmpbuff                 Allocated to registers r0x1010 r0x1011 ;size:2
                                           ;@adc_get_val g_adcmax                  Allocated to registers r0x1010 r0x1011 ;size:2
                                           ;@adc_get_val g_adcmin                  Allocated to registers r0x1012 r0x1013 ;size:2
                                           ;@end Allocation info for local variables in function 'adc_get_val';
                                           ;@Allocation info for local variables in function 'Sys_Init'
                                           ;@end Allocation info for local variables in function 'Sys_Init';
                                           ;@Allocation info for local variables in function 'key_scan'
                                           ;@key_scan cnt                       Allocated to registers r0x101A ;size:1
                                           ;@end Allocation info for local variables in function 'key_scan';
                                           ;@Allocation info for local variables in function 'key_handle'
                                           ;@end Allocation info for local variables in function 'key_handle';
                                           ;@Allocation info for local variables in function 'adc_scan_handle'
                                           ;@adc_scan_handle cnt                       Allocated to registers r0x101B ;size:1
                                           ;@adc_scan_handle need_charge_cnt           Allocated to registers r0x101E ;size:1
                                           ;@adc_scan_handle need_charge_slow_cnt      Allocated to registers r0x101D ;size:1
                                           ;@adc_scan_handle flag_bat_is_empty         Allocated to registers r0x101C ;size:1
                                           ;@end Allocation info for local variables in function 'adc_scan_handle';
                                           ;@Allocation info for local variables in function 'turn_dir_scan_handle'
                                           ;@end Allocation info for local variables in function 'turn_dir_scan_handle';
                                           ;@Allocation info for local variables in function 'shutdown_scan_handle'
                                           ;@end Allocation info for local variables in function 'shutdown_scan_handle';
                                           ;@Allocation info for local variables in function 'low_power_scan_handle'
                                           ;@end Allocation info for local variables in function 'low_power_scan_handle';
                                           ;@Allocation info for local variables in function 'main'
                                           ;@end Allocation info for local variables in function 'main';
                                           ;@Allocation info for local variables in function 'int_isr'
                                           ;@end Allocation info for local variables in function 'int_isr';
                                           
                                           ;--------------------------------------------------------
                                           ; overlayable items in internal ram 
                                           ;--------------------------------------------------------
                                           ;	udata_ovr
                                           ;--------------------------------------------------------
                                           ; reset vector 
                                           ;--------------------------------------------------------
                                           STARTUP	code 0x0000
000000   a01d     goto    0x1d             	goto	_main
                                           ;--------------------------------------------------------
                                           ; interrupt and initialization code
                                           ;--------------------------------------------------------
                                           c_interrupt	code	0x8
                                           __sdcc_interrupt
                                           ;***
                                           ;  pBlock Stats: dbName = I
                                           ;***
                                           ;entry:  _int_isr	;Function start
                                           ; 0 exit points
                                           ;2 compiler assigned registers:
                                           ;   r0x1028
                                           ;   r0x1029
                                           ;; Starting pCode block
                                           _int_isr	;Function start
                                           ; 0 exit points
                                           ;	.line	799; "MC32P7311.c"	__endasm;
                                           	;
000008   5630     movra   0x30             	movra	_abuf;
000009   4587     swapar  0x187            	swapar	_PFLAG;
00000a   5631     movra   0x31             	movra	_statusbuf;
                                           	
                                           ;	.line	832; "MC32P7311.c"	if (INT0IF & INT0IE)
00000b   7621     clrr    0x21             	CLRR	r0x1028
00000c   f58b     jbclr   0x18b, 0x2       	JBCLR	_INTFbits,2
00000d   6621     incr    0x21             	INCR	r0x1028
00000e   7622     clrr    0x22             	CLRR	r0x1029
00000f   f58a     jbclr   0x18a, 0x2       	JBCLR	_INTEbits,2
000010   6622     incr    0x22             	INCR	r0x1029
000011   5822     movar   0x22             	MOVAR	r0x1029
000012   7a21     andra   0x21             	ANDRA	r0x1028
000013   3c00     movai   0                	MOVAI	0x00
000014   5c21     orar    0x21             	ORAR	r0x1028
000015   f587     jbclr   0x187, 0x2       	JBCLR	PFLAG,2
000016   a018     goto    0x18             	GOTO	_00680_DS_
                                           ;	.line	834; "MC32P7311.c"	INT0IF = 0;
000017   d58b     bclr    0x18b, 0x2       	BCLR	_INTFbits,2
                                           _00680_DS_
                                           ;	.line	846; "MC32P7311.c"	__endasm;
                                           	;
000018   4431     swapar  0x31             	swapar	_statusbuf;
000019   5787     movra   0x187            	movra	_PFLAG;
00001a   4630     swapr   0x30             	swapr	_abuf;
00001b   4430     swapar  0x30             	swapar	_abuf;
                                           	
                                           END_OF_INTERRUPT
                                           ;	.line	847; "MC32P7311.c"	}
00001c   000d     retie                    	RETIE	
                                           
                                           ;--------------------------------------------------------
                                           ; code
                                           ;--------------------------------------------------------
                                           code_MC32P7311	code
                                           ;***
                                           ;  pBlock Stats: dbName = M
                                           ;***
                                           ;entry:  _main	;Function start
                                           ; 2 exit points
                                           ;has an exit
                                           ;functions called:
                                           ;   _Sys_Init
                                           ;   _key_scan
                                           ;   _key_handle
                                           ;   _adc_scan_handle
                                           ;   _turn_dir_scan_handle
                                           ;   _shutdown_scan_handle
                                           ;   _low_power_scan_handle
                                           ;   _Sys_Init
                                           ;   _key_scan
                                           ;   _key_handle
                                           ;   _adc_scan_handle
                                           ;   _turn_dir_scan_handle
                                           ;   _shutdown_scan_handle
                                           ;   _low_power_scan_handle
                                           ;; Starting pCode block
                                           _main	;Function start
                                           ; 2 exit points
                                           ;	.line	763; "MC32P7311.c"	Sys_Init();
00001d   81f7     call    0x1f7            	CALL	_Sys_Init
                                           ;	.line	765; "MC32P7311.c"	LED_WORKING_OFF();
00001e   c994     bset    0x194, 0x4       	BSET	_IOP1bits,4
                                           ;	.line	766; "MC32P7311.c"	LED_FULL_CHARGE_OFF();
00001f   c790     bset    0x190, 0x3       	BSET	_IOP0bits,3
                                           ;	.line	767; "MC32P7311.c"	LED_CHARGING_OFF();
000020   c990     bset    0x190, 0x4       	BSET	_IOP0bits,4
                                           _00674_DS_
                                           ;	.line	772; "MC32P7311.c"	P10D = 1; // 测试一次循环所需的时间
000021   c194     bset    0x194, 0         	BSET	_IOP1bits,0
                                           ;	.line	775; "MC32P7311.c"	key_scan();
000022   8194     call    0x194            	CALL	_key_scan
                                           ;	.line	776; "MC32P7311.c"	key_handle();
000023   813e     call    0x13e            	CALL	_key_handle
                                           ;	.line	777; "MC32P7311.c"	adc_scan_handle(); // 充电扫描和处理函数
000024   8093     call    0x93             	CALL	_adc_scan_handle
                                           ;	.line	779; "MC32P7311.c"	turn_dir_scan_handle();
000025   8066     call    0x66             	CALL	_turn_dir_scan_handle
                                           ;	.line	780; "MC32P7311.c"	shutdown_scan_handle(); // 自动关机检测和处理函数
000026   803e     call    0x3e             	CALL	_shutdown_scan_handle
                                           ;	.line	781; "MC32P7311.c"	low_power_scan_handle();
000027   802c     call    0x2c             	CALL	_low_power_scan_handle
                                           ;	.line	784; "MC32P7311.c"	P10D = 0; // 测试一次循环所需的时间
000028   d194     bclr    0x194, 0         	BCLR	_IOP1bits,0
                                           ;	.line	789; "MC32P7311.c"	__endasm;
                                           	;
000029   000e     clrwdt                   	CLRWDT;
                                           	
00002a   a021     goto    0x21             	GOTO	_00674_DS_
                                           ;	.line	791; "MC32P7311.c"	}
00002b   000c     return                   	RETURN	
                                           ; exit point of _main
                                           
                                           ;***
                                           ;  pBlock Stats: dbName = C
                                           ;***
                                           ;entry:  _low_power_scan_handle	;Function start
                                           ; 2 exit points
                                           ;has an exit
                                           ;; Starting pCode block
                                           _low_power_scan_handle	;Function start
                                           ; 2 exit points
                                           ;	.line	732; "MC32P7311.c"	if (FLAG_IS_DEVICE_OPEN)
00002c   e032     jbset   0x32, 0          	JBSET	_flag1,0
00002d   a02f     goto    0x2f             	GOTO	_00656_DS_
                                           ;	.line	735; "MC32P7311.c"	return;
00002e   a03d     goto    0x3d             	GOTO	_00659_DS_
                                           _00656_DS_
                                           ;	.line	740; "MC32P7311.c"	if (FLAG_IS_IN_CHARGING)
00002f   e432     jbset   0x32, 0x2        	JBSET	_flag1,2
000030   a032     goto    0x32             	GOTO	_00658_DS_
                                           ;	.line	743; "MC32P7311.c"	return;
000031   a03d     goto    0x3d             	GOTO	_00659_DS_
                                           _00658_DS_
                                           ;	.line	746; "MC32P7311.c"	GIE = 0;
000032   df88     bclr    0x188, 0x7       	BCLR	_MCRbits,7
                                           ;	.line	747; "MC32P7311.c"	KBIF = 0;
000033   d98b     bclr    0x18b, 0x4       	BCLR	_INTFbits,4
                                           ;	.line	748; "MC32P7311.c"	KBIE = 1;
000034   c98a     bset    0x18a, 0x4       	BSET	_INTEbits,4
                                           ;	.line	750; "MC32P7311.c"	Nop();
000035   0000     nop                      	nop	
                                           ;	.line	751; "MC32P7311.c"	Nop();
000036   0000     nop                      	nop	
                                           ;	.line	752; "MC32P7311.c"	Stop();
000037   000b     stop                     	stop	
                                           ;	.line	753; "MC32P7311.c"	Nop();
000038   0000     nop                      	nop	
                                           ;	.line	754; "MC32P7311.c"	Nop();
000039   0000     nop                      	nop	
                                           ;	.line	755; "MC32P7311.c"	KBIE = 0;
00003a   d98a     bclr    0x18a, 0x4       	BCLR	_INTEbits,4
                                           ;	.line	756; "MC32P7311.c"	KBIF = 0;
00003b   d98b     bclr    0x18b, 0x4       	BCLR	_INTFbits,4
                                           ;	.line	757; "MC32P7311.c"	GIE = 1;
00003c   cf88     bset    0x188, 0x7       	BSET	_MCRbits,7
                                           _00659_DS_
                                           ;	.line	759; "MC32P7311.c"	}
00003d   000c     return                   	RETURN	
                                           ; exit point of _low_power_scan_handle
                                           
                                           ;***
                                           ;  pBlock Stats: dbName = C
                                           ;***
                                           ;entry:  _shutdown_scan_handle	;Function start
                                           ; 2 exit points
                                           ;has an exit
                                           ;; Starting pCode block
                                           _shutdown_scan_handle	;Function start
                                           ; 2 exit points
                                           ;	.line	704; "MC32P7311.c"	if (FLAG_IS_DEVICE_OPEN)
00003e   e032     jbset   0x32, 0          	JBSET	_flag1,0
00003f   a061     goto    0x61             	GOTO	_00638_DS_
                                           ;	.line	707; "MC32P7311.c"	shut_down_ms_cnt += ONE_CYCLE_TIME_MS;
000040   3c50     movai   0x50             	MOVAI	0x50
000041   7e27     addra   0x27             	ADDRA	_shut_down_ms_cnt
000042   f187     jbclr   0x187, 0         	JBCLR	PFLAG,0
000043   6628     incr    0x28             	INCR	(_shut_down_ms_cnt + 1)
000044   f587     jbclr   0x187, 0x2       	JBCLR	PFLAG,2
000045   6629     incr    0x29             	INCR	(_shut_down_ms_cnt + 2)
000046   f587     jbclr   0x187, 0x2       	JBCLR	PFLAG,2
000047   662a     incr    0x2a             	INCR	(_shut_down_ms_cnt + 3)
                                           ;;unsigned compare: left < lit(0xDBBA0=900000), size=4
                                           ;	.line	708; "MC32P7311.c"	if (shut_down_ms_cnt >= 900000)
000048   3c00     movai   0                	MOVAI	0x00
000049   482a     rsubar  0x2a             	RSUBAR	(_shut_down_ms_cnt + 3)
00004a   e587     jbset   0x187, 0x2       	JBSET	PFLAG,2
00004b   a056     goto    0x56             	GOTO	_00650_DS_
00004c   3c0d     movai   0xd              	MOVAI	0x0d
00004d   4829     rsubar  0x29             	RSUBAR	(_shut_down_ms_cnt + 2)
00004e   e587     jbset   0x187, 0x2       	JBSET	PFLAG,2
00004f   a056     goto    0x56             	GOTO	_00650_DS_
000050   3cbb     movai   0xbb             	MOVAI	0xbb
000051   4828     rsubar  0x28             	RSUBAR	(_shut_down_ms_cnt + 1)
000052   e587     jbset   0x187, 0x2       	JBSET	PFLAG,2
000053   a056     goto    0x56             	GOTO	_00650_DS_
000054   3ca0     movai   0xa0             	MOVAI	0xa0
000055   4827     rsubar  0x27             	RSUBAR	_shut_down_ms_cnt
                                           _00650_DS_
000056   e187     jbset   0x187, 0         	JBSET	PFLAG,0
000057   a065     goto    0x65             	GOTO	_00640_DS_
                                           ;;genSkipc:3291: created from rifx:013B5EFC
                                           ;	.line	712; "MC32P7311.c"	LED_WORKING_OFF(); // 关闭电源指示灯
000058   c994     bset    0x194, 0x4       	BSET	_IOP1bits,4
                                           ;	.line	713; "MC32P7311.c"	HEATING_OFF();	   // 关闭加热
000059   d594     bclr    0x194, 0x2       	BCLR	_IOP1bits,2
                                           ;	.line	714; "MC32P7311.c"	FLAG_IS_HEATING = 0;
00005a   d232     bclr    0x32, 0x1        	BCLR	_flag1,1
                                           ;	.line	715; "MC32P7311.c"	mode_flag = MODE_3; // 下一次切换模式时，会变成 MODE_1
00005b   3c02     movai   0x2              	MOVAI	0x02
00005c   562d     movra   0x2d             	MOVRA	_mode_flag
                                           ;	.line	717; "MC32P7311.c"	PWM0OE = 0;
00005d   dd98     bclr    0x198, 0x6       	BCLR	_T0CRbits,6
                                           ;	.line	718; "MC32P7311.c"	PWM1OE = 0;
00005e   dd9c     bclr    0x19c, 0x6       	BCLR	_T1CRbits,6
                                           ;	.line	720; "MC32P7311.c"	FLAG_IS_DEVICE_OPEN = 0;
00005f   d032     bclr    0x32, 0          	BCLR	_flag1,0
000060   a065     goto    0x65             	GOTO	_00640_DS_
                                           _00638_DS_
                                           ;	.line	726; "MC32P7311.c"	shut_down_ms_cnt = 0;
000061   7627     clrr    0x27             	CLRR	_shut_down_ms_cnt
000062   7628     clrr    0x28             	CLRR	(_shut_down_ms_cnt + 1)
000063   7629     clrr    0x29             	CLRR	(_shut_down_ms_cnt + 2)
000064   762a     clrr    0x2a             	CLRR	(_shut_down_ms_cnt + 3)
                                           _00640_DS_
                                           ;	.line	728; "MC32P7311.c"	}
000065   000c     return                   	RETURN	
                                           ; exit point of _shutdown_scan_handle
                                           
                                           ;***
                                           ;  pBlock Stats: dbName = C
                                           ;***
                                           ;entry:  _turn_dir_scan_handle	;Function start
                                           ; 2 exit points
                                           ;has an exit
                                           ;; Starting pCode block
                                           _turn_dir_scan_handle	;Function start
                                           ; 2 exit points
                                           ;	.line	668; "MC32P7311.c"	if (FLAG_IS_DEVICE_OPEN)
000066   e032     jbset   0x32, 0          	JBSET	_flag1,0
000067   a08e     goto    0x8e             	GOTO	_00608_DS_
                                           ;	.line	671; "MC32P7311.c"	turn_dir_ms_cnt += ONE_CYCLE_TIME_MS;
000068   3c50     movai   0x50             	MOVAI	0x50
000069   7e23     addra   0x23             	ADDRA	_turn_dir_ms_cnt
00006a   f187     jbclr   0x187, 0         	JBCLR	PFLAG,0
00006b   6624     incr    0x24             	INCR	(_turn_dir_ms_cnt + 1)
00006c   f587     jbclr   0x187, 0x2       	JBCLR	PFLAG,2
00006d   6625     incr    0x25             	INCR	(_turn_dir_ms_cnt + 2)
00006e   f587     jbclr   0x187, 0x2       	JBCLR	PFLAG,2
00006f   6626     incr    0x26             	INCR	(_turn_dir_ms_cnt + 3)
                                           ;;unsigned compare: left < lit(0x1D4C0=120000), size=4
                                           ;	.line	672; "MC32P7311.c"	if (turn_dir_ms_cnt >= 120000)
000070   3c00     movai   0                	MOVAI	0x00
000071   4826     rsubar  0x26             	RSUBAR	(_turn_dir_ms_cnt + 3)
000072   e587     jbset   0x187, 0x2       	JBSET	PFLAG,2
000073   a07e     goto    0x7e             	GOTO	_00624_DS_
000074   3c01     movai   0x1              	MOVAI	0x01
000075   4825     rsubar  0x25             	RSUBAR	(_turn_dir_ms_cnt + 2)
000076   e587     jbset   0x187, 0x2       	JBSET	PFLAG,2
000077   a07e     goto    0x7e             	GOTO	_00624_DS_
000078   3cd4     movai   0xd4             	MOVAI	0xd4
000079   4824     rsubar  0x24             	RSUBAR	(_turn_dir_ms_cnt + 1)
00007a   e587     jbset   0x187, 0x2       	JBSET	PFLAG,2
00007b   a07e     goto    0x7e             	GOTO	_00624_DS_
00007c   3cc0     movai   0xc0             	MOVAI	0xc0
00007d   4823     rsubar  0x23             	RSUBAR	_turn_dir_ms_cnt
                                           _00624_DS_
00007e   e187     jbset   0x187, 0         	JBSET	PFLAG,0
00007f   a092     goto    0x92             	GOTO	_00610_DS_
                                           ;;genSkipc:3291: created from rifx:013B5EFC
                                           ;	.line	675; "MC32P7311.c"	if (0 == FLAG_DIR)
000080   f632     jbclr   0x32, 0x3        	JBCLR	_flag1,3
000081   a086     goto    0x86             	GOTO	_00603_DS_
                                           ;	.line	678; "MC32P7311.c"	PWM0OE = 0; // 关闭驱动正转的pwm
000082   dd98     bclr    0x198, 0x6       	BCLR	_T0CRbits,6
                                           ;	.line	679; "MC32P7311.c"	PWM1OE = 1; // 打开驱动反转的pwm
000083   cd9c     bset    0x19c, 0x6       	BSET	_T1CRbits,6
                                           ;	.line	681; "MC32P7311.c"	FLAG_DIR = 1; // 表示当前为反转
000084   c632     bset    0x32, 0x3        	BSET	_flag1,3
000085   a089     goto    0x89             	GOTO	_00604_DS_
                                           _00603_DS_
                                           ;	.line	686; "MC32P7311.c"	PWM1OE = 0; // 关闭驱动反转的pwm
000086   dd9c     bclr    0x19c, 0x6       	BCLR	_T1CRbits,6
                                           ;	.line	687; "MC32P7311.c"	PWM0OE = 1; // 打开驱动正转的pwm
000087   cd98     bset    0x198, 0x6       	BSET	_T0CRbits,6
                                           ;	.line	689; "MC32P7311.c"	FLAG_DIR = 0; // 表示当前为正转
000088   d632     bclr    0x32, 0x3        	BCLR	_flag1,3
                                           _00604_DS_
                                           ;	.line	692; "MC32P7311.c"	turn_dir_ms_cnt = 0;
000089   7623     clrr    0x23             	CLRR	_turn_dir_ms_cnt
00008a   7624     clrr    0x24             	CLRR	(_turn_dir_ms_cnt + 1)
00008b   7625     clrr    0x25             	CLRR	(_turn_dir_ms_cnt + 2)
00008c   7626     clrr    0x26             	CLRR	(_turn_dir_ms_cnt + 3)
00008d   a092     goto    0x92             	GOTO	_00610_DS_
                                           _00608_DS_
                                           ;	.line	697; "MC32P7311.c"	turn_dir_ms_cnt = 0; // 设备未运行时，清空计数值
00008e   7623     clrr    0x23             	CLRR	_turn_dir_ms_cnt
00008f   7624     clrr    0x24             	CLRR	(_turn_dir_ms_cnt + 1)
000090   7625     clrr    0x25             	CLRR	(_turn_dir_ms_cnt + 2)
000091   7626     clrr    0x26             	CLRR	(_turn_dir_ms_cnt + 3)
                                           _00610_DS_
                                           ;	.line	699; "MC32P7311.c"	}
000092   000c     return                   	RETURN	
                                           ; exit point of _turn_dir_scan_handle
                                           
                                           ;***
                                           ;  pBlock Stats: dbName = C
                                           ;***
                                           ;entry:  _adc_scan_handle	;Function start
                                           ; 2 exit points
                                           ;has an exit
                                           ;functions called:
                                           ;   _adc_sel_pin
                                           ;   _adc_get_val
                                           ;   _adc_sel_pin
                                           ;   _adc_get_val
                                           ;   _adc_sel_pin
                                           ;   _adc_get_val
                                           ;   _adc_sel_pin
                                           ;   _adc_get_val
                                           ;5 compiler assigned registers:
                                           ;   r0x101B
                                           ;   r0x101C
                                           ;   r0x101D
                                           ;   r0x101E
                                           ;   STK00
                                           ;; Starting pCode block
                                           _adc_scan_handle	;Function start
                                           ; 2 exit points
                                           ;	.line	527; "MC32P7311.c"	u8 cnt = 0;					 // 计数值，用于检测电池是否满电，也是用于检测是否插入/拔出充电器的计数值
000093   761d     clrr    0x1d             	CLRR	r0x101B
                                           ;	.line	530; "MC32P7311.c"	u8 flag_bat_is_empty = 0;	 // 标志位，用于检测是否拔出了电池
000094   761e     clrr    0x1e             	CLRR	r0x101C
                                           ;	.line	532; "MC32P7311.c"	adc_sel_pin(ADC_PIN_P02_AN1); // 切换到检测电池降压后的电压的检测引脚
000095   3c02     movai   0x2              	MOVAI	0x02
000096   8264     call    0x264            	CALL	_adc_sel_pin
                                           ;	.line	533; "MC32P7311.c"	for (i = 0; i < 10; i++)
000097   762f     clrr    0x2f             	CLRR	_i
000098   761f     clrr    0x1f             	CLRR	r0x101D
000099   7620     clrr    0x20             	CLRR	r0x101E
                                           ;;unsigned compare: left < lit(0xA=10), size=1
                                           _00462_DS_
00009a   3c0a     movai   0xa              	MOVAI	0x0a
00009b   482f     rsubar  0x2f             	RSUBAR	_i
00009c   f187     jbclr   0x187, 0         	JBCLR	PFLAG,0
00009d   a101     goto    0x101            	GOTO	_00431_DS_
                                           ;;genSkipc:3291: created from rifx:013B5EFC
                                           ;	.line	535; "MC32P7311.c"	adc_val = adc_get_val();
00009e   8201     call    0x201            	CALL	_adc_get_val
00009f   562c     movra   0x2c             	MOVRA	(_adc_val + 1)
0000a0   5806     movar   0x6              	MOVAR	STK00
0000a1   562b     movra   0x2b             	MOVRA	_adc_val
                                           ;	.line	536; "MC32P7311.c"	if (FLAG_IS_IN_CHARGING)
0000a2   e432     jbset   0x32, 0x2        	JBSET	_flag1,2
0000a3   a0f0     goto    0xf0             	GOTO	_00429_DS_
                                           ;;swapping arguments (AOP_TYPEs 1/3)
                                           ;;unsigned compare: left >= lit(0x47C=1148), size=2
                                           ;	.line	539; "MC32P7311.c"	if (adc_val <= ADCDETECT_BAT_EMPTY) // 如果有一次电池一侧的电压小于5V，认为是拔出了电池
0000a4   3c04     movai   0x4              	MOVAI	0x04
0000a5   482c     rsubar  0x2c             	RSUBAR	(_adc_val + 1)
0000a6   e587     jbset   0x187, 0x2       	JBSET	PFLAG,2
0000a7   a0aa     goto    0xaa             	GOTO	_00585_DS_
0000a8   3c7c     movai   0x7c             	MOVAI	0x7c
0000a9   482b     rsubar  0x2b             	RSUBAR	_adc_val
                                           _00585_DS_
0000aa   f187     jbclr   0x187, 0         	JBCLR	PFLAG,0
0000ab   a0af     goto    0xaf             	GOTO	_00393_DS_
                                           ;;genSkipc:3291: created from rifx:013B5EFC
                                           ;	.line	541; "MC32P7311.c"	flag_bat_is_empty = 1;
0000ac   3c01     movai   0x1              	MOVAI	0x01
0000ad   561e     movra   0x1e             	MOVRA	r0x101C
0000ae   a0cc     goto    0xcc             	GOTO	_00394_DS_
                                           ;;unsigned compare: left < lit(0x63B=1595), size=2
                                           _00393_DS_
                                           ;	.line	543; "MC32P7311.c"	else if (adc_val >= ADCDETECT_BAT_FULL) // 检测电池是否满电
0000af   3c06     movai   0x6              	MOVAI	0x06
0000b0   482c     rsubar  0x2c             	RSUBAR	(_adc_val + 1)
0000b1   e587     jbset   0x187, 0x2       	JBSET	PFLAG,2
0000b2   a0b5     goto    0xb5             	GOTO	_00586_DS_
0000b3   3c3b     movai   0x3b             	MOVAI	0x3b
0000b4   482b     rsubar  0x2b             	RSUBAR	_adc_val
                                           _00586_DS_
0000b5   e187     jbset   0x187, 0         	JBSET	PFLAG,0
0000b6   a0b9     goto    0xb9             	GOTO	_00390_DS_
                                           ;;genSkipc:3291: created from rifx:013B5EFC
                                           ;	.line	545; "MC32P7311.c"	cnt++;
0000b7   661d     incr    0x1d             	INCR	r0x101B
0000b8   a0cc     goto    0xcc             	GOTO	_00394_DS_
                                           ;;unsigned compare: left < lit(0x5DD=1501), size=2
                                           _00390_DS_
                                           ;	.line	547; "MC32P7311.c"	else if (adc_val < ADCDETECT_BAT_WILL_FULL) // 检测是否要快速充电
0000b9   3c05     movai   0x5              	MOVAI	0x05
0000ba   482c     rsubar  0x2c             	RSUBAR	(_adc_val + 1)
0000bb   e587     jbset   0x187, 0x2       	JBSET	PFLAG,2
0000bc   a0bf     goto    0xbf             	GOTO	_00587_DS_
0000bd   3cdd     movai   0xdd             	MOVAI	0xdd
0000be   482b     rsubar  0x2b             	RSUBAR	_adc_val
                                           _00587_DS_
0000bf   f187     jbclr   0x187, 0         	JBCLR	PFLAG,0
0000c0   a0c3     goto    0xc3             	GOTO	_00387_DS_
                                           ;;genSkipc:3291: created from rifx:013B5EFC
                                           ;	.line	549; "MC32P7311.c"	need_charge_cnt++;
0000c1   6620     incr    0x20             	INCR	r0x101E
0000c2   a0cc     goto    0xcc             	GOTO	_00394_DS_
                                           ;;unsigned compare: left < lit(0x5DD=1501), size=2
                                           _00387_DS_
                                           ;	.line	551; "MC32P7311.c"	else if (adc_val >= ADCDETECT_BAT_WILL_FULL) // 检测是否要稍微降低充电速度
0000c3   3c05     movai   0x5              	MOVAI	0x05
0000c4   482c     rsubar  0x2c             	RSUBAR	(_adc_val + 1)
0000c5   e587     jbset   0x187, 0x2       	JBSET	PFLAG,2
0000c6   a0c9     goto    0xc9             	GOTO	_00588_DS_
0000c7   3cdd     movai   0xdd             	MOVAI	0xdd
0000c8   482b     rsubar  0x2b             	RSUBAR	_adc_val
                                           _00588_DS_
0000c9   e187     jbset   0x187, 0         	JBSET	PFLAG,0
0000ca   a0cc     goto    0xcc             	GOTO	_00394_DS_
                                           ;;genSkipc:3291: created from rifx:013B5EFC
                                           ;	.line	553; "MC32P7311.c"	need_charge_slow_cnt++;
0000cb   661f     incr    0x1f             	INCR	r0x101D
                                           _00394_DS_
                                           ;	.line	556; "MC32P7311.c"	if (flag_bat_is_empty)
0000cc   3c00     movai   0                	MOVAI	0x00
0000cd   5c1e     orar    0x1e             	ORAR	r0x101C
0000ce   f587     jbclr   0x187, 0x2       	JBCLR	PFLAG,2
0000cf   a0d5     goto    0xd5             	GOTO	_00422_DS_
                                           ;	.line	559; "MC32P7311.c"	LED_FULL_CHARGE_ON(); // 开启电池充满电的指示灯
0000d0   d790     bclr    0x190, 0x3       	BCLR	_IOP0bits,3
                                           ;	.line	560; "MC32P7311.c"	LED_CHARGING_OFF();	  // 关闭充电指示灯
0000d1   c990     bset    0x190, 0x4       	BSET	_IOP0bits,4
                                           ;	.line	561; "MC32P7311.c"	PWM2OE = 0;			  // 关闭控制升压电路的pwm
0000d2   dda0     bclr    0x1a0, 0x6       	BCLR	_T2CRbits,6
                                           ;	.line	562; "MC32P7311.c"	FLAG_BAT_IS_NEED_CHARGE = 0;
0000d3   d832     bclr    0x32, 0x4        	BCLR	_flag1,4
                                           ;	.line	563; "MC32P7311.c"	break;
0000d4   a101     goto    0x101            	GOTO	_00431_DS_
                                           ;;unsigned compare: left < lit(0x8=8), size=1
                                           _00422_DS_
                                           ;	.line	565; "MC32P7311.c"	else if (cnt >= 8)
0000d5   3c08     movai   0x8              	MOVAI	0x08
0000d6   481d     rsubar  0x1d             	RSUBAR	r0x101B
0000d7   e187     jbset   0x187, 0         	JBSET	PFLAG,0
0000d8   a0de     goto    0xde             	GOTO	_00419_DS_
                                           ;;genSkipc:3291: created from rifx:013B5EFC
                                           ;	.line	568; "MC32P7311.c"	LED_FULL_CHARGE_ON(); // 开启电池充满电的指示灯
0000d9   d790     bclr    0x190, 0x3       	BCLR	_IOP0bits,3
                                           ;	.line	569; "MC32P7311.c"	LED_CHARGING_OFF();	  // 关闭充电指示灯
0000da   c990     bset    0x190, 0x4       	BSET	_IOP0bits,4
                                           ;	.line	570; "MC32P7311.c"	PWM2OE = 0;			  // 关闭控制升压电路的pwm
0000db   dda0     bclr    0x1a0, 0x6       	BCLR	_T2CRbits,6
                                           ;	.line	572; "MC32P7311.c"	FLAG_BAT_IS_NEED_CHARGE = 0;
0000dc   d832     bclr    0x32, 0x4        	BCLR	_flag1,4
                                           ;	.line	574; "MC32P7311.c"	break;
0000dd   a101     goto    0x101            	GOTO	_00431_DS_
                                           ;;unsigned compare: left < lit(0x8=8), size=1
                                           _00419_DS_
                                           ;	.line	576; "MC32P7311.c"	else if (need_charge_cnt >= 8)
0000de   3c08     movai   0x8              	MOVAI	0x08
0000df   4820     rsubar  0x20             	RSUBAR	r0x101E
0000e0   e187     jbset   0x187, 0         	JBSET	PFLAG,0
0000e1   a0e7     goto    0xe7             	GOTO	_00416_DS_
                                           ;;genSkipc:3291: created from rifx:013B5EFC
                                           ;	.line	579; "MC32P7311.c"	T2DATA = 23;		   // 占空比 == TxDATA / TxLOAD   实际测得是46.15%占空比
0000e2   3c17     movai   0x17             	MOVAI	0x17
0000e3   57a3     movra   0x1a3            	MOVRA	_T2DATA
                                           ;	.line	580; "MC32P7311.c"	LED_FULL_CHARGE_OFF(); // 关闭充满电的指示灯
0000e4   c790     bset    0x190, 0x3       	BSET	_IOP0bits,3
                                           ;	.line	581; "MC32P7311.c"	FLAG_BAT_IS_NEED_CHARGE = 1;
0000e5   c832     bset    0x32, 0x4        	BSET	_flag1,4
                                           ;	.line	582; "MC32P7311.c"	break;
0000e6   a101     goto    0x101            	GOTO	_00431_DS_
                                           ;;unsigned compare: left < lit(0x8=8), size=1
                                           _00416_DS_
                                           ;	.line	584; "MC32P7311.c"	else if (need_charge_slow_cnt >= 8)
0000e7   3c08     movai   0x8              	MOVAI	0x08
0000e8   481f     rsubar  0x1f             	RSUBAR	r0x101D
0000e9   e187     jbset   0x187, 0         	JBSET	PFLAG,0
0000ea   a0ff     goto    0xff             	GOTO	_00463_DS_
                                           ;;genSkipc:3291: created from rifx:013B5EFC
                                           ;	.line	587; "MC32P7311.c"	T2DATA = 22;		   // 占空比 == TxDATA / TxLOAD   实际测得是41.54%、43%或44.62 这两个占空比
0000eb   3c16     movai   0x16             	MOVAI	0x16
0000ec   57a3     movra   0x1a3            	MOVRA	_T2DATA
                                           ;	.line	588; "MC32P7311.c"	LED_FULL_CHARGE_OFF(); // 关闭充满电的指示灯
0000ed   c790     bset    0x190, 0x3       	BSET	_IOP0bits,3
                                           ;	.line	589; "MC32P7311.c"	FLAG_BAT_IS_NEED_CHARGE = 1;
0000ee   c832     bset    0x32, 0x4        	BSET	_flag1,4
                                           ;	.line	590; "MC32P7311.c"	break;
0000ef   a101     goto    0x101            	GOTO	_00431_DS_
                                           ;;swapping arguments (AOP_TYPEs 1/3)
                                           ;;unsigned compare: left >= lit(0x5BA=1466), size=2
                                           _00429_DS_
                                           ;	.line	595; "MC32P7311.c"	if (adc_val <= ADCDETECT_BAT_FULL - 130)
0000f0   3c05     movai   0x5              	MOVAI	0x05
0000f1   482c     rsubar  0x2c             	RSUBAR	(_adc_val + 1)
0000f2   e587     jbset   0x187, 0x2       	JBSET	PFLAG,2
0000f3   a0f6     goto    0xf6             	GOTO	_00592_DS_
0000f4   3cba     movai   0xba             	MOVAI	0xba
0000f5   482b     rsubar  0x2b             	RSUBAR	_adc_val
                                           _00592_DS_
0000f6   f187     jbclr   0x187, 0         	JBCLR	PFLAG,0
0000f7   a0f9     goto    0xf9             	GOTO	_00425_DS_
                                           ;;genSkipc:3291: created from rifx:013B5EFC
                                           ;	.line	597; "MC32P7311.c"	cnt++;
0000f8   661d     incr    0x1d             	INCR	r0x101B
                                           ;;unsigned compare: left < lit(0x8=8), size=1
                                           _00425_DS_
                                           ;	.line	600; "MC32P7311.c"	if (cnt >= 8)
0000f9   3c08     movai   0x8              	MOVAI	0x08
0000fa   481d     rsubar  0x1d             	RSUBAR	r0x101B
0000fb   e187     jbset   0x187, 0         	JBSET	PFLAG,0
0000fc   a0ff     goto    0xff             	GOTO	_00463_DS_
                                           ;;genSkipc:3291: created from rifx:013B5EFC
                                           ;	.line	603; "MC32P7311.c"	FLAG_BAT_IS_NEED_CHARGE = 1;
0000fd   c832     bset    0x32, 0x4        	BSET	_flag1,4
                                           ;	.line	604; "MC32P7311.c"	break;
0000fe   a101     goto    0x101            	GOTO	_00431_DS_
                                           _00463_DS_
                                           ;	.line	533; "MC32P7311.c"	for (i = 0; i < 10; i++)
0000ff   662f     incr    0x2f             	INCR	_i
000100   a09a     goto    0x9a             	GOTO	_00462_DS_
                                           _00431_DS_
                                           ;	.line	609; "MC32P7311.c"	cnt = 0;
000101   761d     clrr    0x1d             	CLRR	r0x101B
                                           ;	.line	610; "MC32P7311.c"	adc_sel_pin(ADC_PIN_P00_AN0); // 切换到检测充电的电压检测引脚
000102   3c01     movai   0x1              	MOVAI	0x01
000103   8264     call    0x264            	CALL	_adc_sel_pin
                                           ;	.line	611; "MC32P7311.c"	for (i = 0; i < 10; i++)
000104   762f     clrr    0x2f             	CLRR	_i
                                           ;;unsigned compare: left < lit(0xA=10), size=1
                                           _00465_DS_
000105   3c0a     movai   0xa              	MOVAI	0x0a
000106   482f     rsubar  0x2f             	RSUBAR	_i
000107   f187     jbclr   0x187, 0         	JBCLR	PFLAG,0
000108   a13d     goto    0x13d            	GOTO	_00467_DS_
                                           ;;genSkipc:3291: created from rifx:013B5EFC
                                           ;	.line	613; "MC32P7311.c"	adc_val = adc_get_val();
000109   8201     call    0x201            	CALL	_adc_get_val
00010a   562c     movra   0x2c             	MOVRA	(_adc_val + 1)
00010b   5806     movar   0x6              	MOVAR	STK00
00010c   562b     movra   0x2b             	MOVRA	_adc_val
                                           ;	.line	614; "MC32P7311.c"	if (FLAG_IS_IN_CHARGING)
00010d   e432     jbset   0x32, 0x2        	JBSET	_flag1,2
00010e   a128     goto    0x128            	GOTO	_00458_DS_
                                           ;;unsigned compare: left < lit(0x800=2048), size=2
                                           ;	.line	617; "MC32P7311.c"	if (adc_val < ADCDETECT_CHARING_THRESHOLD)
00010f   3c08     movai   0x8              	MOVAI	0x08
000110   482c     rsubar  0x2c             	RSUBAR	(_adc_val + 1)
000111   e587     jbset   0x187, 0x2       	JBSET	PFLAG,2
000112   a115     goto    0x115            	GOTO	_00595_DS_
000113   3c00     movai   0                	MOVAI	0x00
000114   482b     rsubar  0x2b             	RSUBAR	_adc_val
                                           _00595_DS_
000115   f187     jbclr   0x187, 0         	JBCLR	PFLAG,0
000116   a118     goto    0x118            	GOTO	_00433_DS_
                                           ;;genSkipc:3291: created from rifx:013B5EFC
                                           ;	.line	619; "MC32P7311.c"	cnt++;
000117   661d     incr    0x1d             	INCR	r0x101B
                                           ;;unsigned compare: left < lit(0x8=8), size=1
                                           _00433_DS_
                                           ;	.line	622; "MC32P7311.c"	if (cnt >= 8)
000118   3c08     movai   0x8              	MOVAI	0x08
000119   481d     rsubar  0x1d             	RSUBAR	r0x101B
00011a   e187     jbset   0x187, 0         	JBSET	PFLAG,0
00011b   a121     goto    0x121            	GOTO	_00441_DS_
                                           ;;genSkipc:3291: created from rifx:013B5EFC
                                           ;	.line	625; "MC32P7311.c"	LED_CHARGING_OFF();	   // 关闭充电指示灯
00011c   c990     bset    0x190, 0x4       	BSET	_IOP0bits,4
                                           ;	.line	626; "MC32P7311.c"	PWM2OE = 0;			   // 关闭控制升压电路的pwm
00011d   dda0     bclr    0x1a0, 0x6       	BCLR	_T2CRbits,6
                                           ;	.line	627; "MC32P7311.c"	LED_FULL_CHARGE_OFF(); // 关闭电池充满电的指示灯
00011e   c790     bset    0x190, 0x3       	BSET	_IOP0bits,3
                                           ;	.line	628; "MC32P7311.c"	FLAG_IS_IN_CHARGING = 0;
00011f   d432     bclr    0x32, 0x2        	BCLR	_flag1,2
                                           ;	.line	630; "MC32P7311.c"	break;
000120   a13d     goto    0x13d            	GOTO	_00467_DS_
                                           _00441_DS_
                                           ;	.line	633; "MC32P7311.c"	if (PWM2OE == 0 && FLAG_BAT_IS_NEED_CHARGE)
000121   fda0     jbclr   0x1a0, 0x6       	JBCLR	_T2CRbits,6
000122   a13b     goto    0x13b            	GOTO	_00466_DS_
000123   e832     jbset   0x32, 0x4        	JBSET	_flag1,4
000124   a13b     goto    0x13b            	GOTO	_00466_DS_
                                           ;	.line	637; "MC32P7311.c"	LED_CHARGING_ON(); // 开启充电指示灯
000125   d990     bclr    0x190, 0x4       	BCLR	_IOP0bits,4
                                           ;	.line	638; "MC32P7311.c"	PWM2OE = 1;		   // 开启控制升压电路的pwm
000126   cda0     bset    0x1a0, 0x6       	BSET	_T2CRbits,6
000127   a13b     goto    0x13b            	GOTO	_00466_DS_
                                           ;;unsigned compare: left < lit(0x800=2048), size=2
                                           _00458_DS_
                                           ;	.line	646; "MC32P7311.c"	if (adc_val >= ADCDETECT_CHARING_THRESHOLD)
000128   3c08     movai   0x8              	MOVAI	0x08
000129   482c     rsubar  0x2c             	RSUBAR	(_adc_val + 1)
00012a   e587     jbset   0x187, 0x2       	JBSET	PFLAG,2
00012b   a12e     goto    0x12e            	GOTO	_00597_DS_
00012c   3c00     movai   0                	MOVAI	0x00
00012d   482b     rsubar  0x2b             	RSUBAR	_adc_val
                                           _00597_DS_
00012e   e187     jbset   0x187, 0         	JBSET	PFLAG,0
00012f   a131     goto    0x131            	GOTO	_00449_DS_
                                           ;;genSkipc:3291: created from rifx:013B5EFC
                                           ;	.line	648; "MC32P7311.c"	cnt++;
000130   661d     incr    0x1d             	INCR	r0x101B
                                           ;;unsigned compare: left < lit(0x8=8), size=1
                                           _00449_DS_
                                           ;	.line	651; "MC32P7311.c"	if (cnt >= 8)
000131   3c08     movai   0x8              	MOVAI	0x08
000132   481d     rsubar  0x1d             	RSUBAR	r0x101B
000133   e187     jbset   0x187, 0         	JBSET	PFLAG,0
000134   a13b     goto    0x13b            	GOTO	_00466_DS_
                                           ;;genSkipc:3291: created from rifx:013B5EFC
                                           ;	.line	653; "MC32P7311.c"	if (FLAG_BAT_IS_NEED_CHARGE)
000135   e832     jbset   0x32, 0x4        	JBSET	_flag1,4
000136   a139     goto    0x139            	GOTO	_00454_DS_
                                           ;	.line	655; "MC32P7311.c"	LED_CHARGING_ON(); // 开启充电指示灯
000137   d990     bclr    0x190, 0x4       	BCLR	_IOP0bits,4
                                           ;	.line	656; "MC32P7311.c"	PWM2OE = 1;		   // 开启控制升压电路的pwm
000138   cda0     bset    0x1a0, 0x6       	BSET	_T2CRbits,6
                                           _00454_DS_
                                           ;	.line	659; "MC32P7311.c"	FLAG_IS_IN_CHARGING = 1;
000139   c432     bset    0x32, 0x2        	BSET	_flag1,2
                                           ;	.line	660; "MC32P7311.c"	break;
00013a   a13d     goto    0x13d            	GOTO	_00467_DS_
                                           _00466_DS_
                                           ;	.line	611; "MC32P7311.c"	for (i = 0; i < 10; i++)
00013b   662f     incr    0x2f             	INCR	_i
00013c   a105     goto    0x105            	GOTO	_00465_DS_
                                           _00467_DS_
                                           ;	.line	664; "MC32P7311.c"	}
00013d   000c     return                   	RETURN	
                                           ; exit point of _adc_scan_handle
                                           
                                           ;***
                                           ;  pBlock Stats: dbName = C
                                           ;***
                                           ;entry:  _key_handle	;Function start
                                           ; 2 exit points
                                           ;has an exit
                                           ;1 compiler assigned register :
                                           ;   r0x100E
                                           ;; Starting pCode block
                                           _key_handle	;Function start
                                           ; 2 exit points
                                           ;	.line	430; "MC32P7311.c"	if (key_press_flag)
00013e   3c00     movai   0                	MOVAI	0x00
00013f   5c2e     orar    0x2e             	ORAR	_key_press_flag
000140   f587     jbclr   0x187, 0x2       	JBCLR	PFLAG,2
000141   a193     goto    0x193            	GOTO	_00379_DS_
                                           ;	.line	433; "MC32P7311.c"	switch (key_press_flag)
000142   582e     movar   0x2e             	MOVAR	_key_press_flag
000143   560a     movra   0xa              	MOVRA	r0x100E
                                           ;;unsigned compare: left < lit(0x1=1), size=1
000144   3c01     movai   0x1              	MOVAI	0x01
000145   480a     rsubar  0xa              	RSUBAR	r0x100E
000146   e187     jbset   0x187, 0         	JBSET	PFLAG,0
000147   a192     goto    0x192            	GOTO	_00376_DS_
                                           ;;genSkipc:3291: created from rifx:013B5EFC
                                           ;;swapping arguments (AOP_TYPEs 1/2)
                                           ;;unsigned compare: left >= lit(0x4=4), size=1
000148   3c04     movai   0x4              	MOVAI	0x04
000149   480a     rsubar  0xa              	RSUBAR	r0x100E
00014a   f187     jbclr   0x187, 0         	JBCLR	PFLAG,0
00014b   a192     goto    0x192            	GOTO	_00376_DS_
                                           ;;genSkipc:3291: created from rifx:013B5EFC
00014c   6e0a     decr    0xa              	DECR	r0x100E
00014d   580a     movar   0xa              	MOVAR	r0x100E
00014e   7f86     addra   0x186            	ADDRA	PCL
00014f   a152     goto    0x152            	GOTO	_00336_DS_
000150   a15c     goto    0x15c            	GOTO	_00348_DS_
000151   a17e     goto    0x17e            	GOTO	_00359_DS_
                                           _00336_DS_
                                           ;	.line	436; "MC32P7311.c"	if (FLAG_IS_DEVICE_OPEN)
000152   e032     jbset   0x32, 0          	JBSET	_flag1,0
000153   a192     goto    0x192            	GOTO	_00376_DS_
                                           ;	.line	439; "MC32P7311.c"	if (0 == FLAG_IS_HEATING)
000154   f232     jbclr   0x32, 0x1        	JBCLR	_flag1,1
000155   a159     goto    0x159            	GOTO	_00340_DS_
                                           ;	.line	441; "MC32P7311.c"	HEATING_ON(); // 打开加热
000156   c594     bset    0x194, 0x2       	BSET	_IOP1bits,2
                                           ;	.line	442; "MC32P7311.c"	FLAG_IS_HEATING = 1;
000157   c232     bset    0x32, 0x1        	BSET	_flag1,1
000158   a192     goto    0x192            	GOTO	_00376_DS_
                                           _00340_DS_
                                           ;	.line	446; "MC32P7311.c"	HEATING_OFF(); // 关闭加热
000159   d594     bclr    0x194, 0x2       	BCLR	_IOP1bits,2
                                           ;	.line	447; "MC32P7311.c"	FLAG_IS_HEATING = 0;
00015a   d232     bclr    0x32, 0x1        	BCLR	_flag1,1
                                           ;	.line	450; "MC32P7311.c"	break;
00015b   a192     goto    0x192            	GOTO	_00376_DS_
                                           _00348_DS_
                                           ;	.line	454; "MC32P7311.c"	if (FLAG_IS_DEVICE_OPEN)
00015c   e032     jbset   0x32, 0          	JBSET	_flag1,0
00015d   a192     goto    0x192            	GOTO	_00376_DS_
                                           ;	.line	457; "MC32P7311.c"	if (MODE_1 == mode_flag)
00015e   3c00     movai   0                	MOVAI	0x00
00015f   5c2d     orar    0x2d             	ORAR	_mode_flag
000160   e587     jbset   0x187, 0x2       	JBSET	PFLAG,2
000161   a169     goto    0x169            	GOTO	_00355_DS_
                                           ;	.line	460; "MC32P7311.c"	T0DATA = 255;
000162   3cff     movai   0xff             	MOVAI	0xff
000163   579b     movra   0x19b            	MOVRA	_T0DATA
                                           ;	.line	461; "MC32P7311.c"	T1DATA = 255; // 100%占空比（确保大于TxLOAD的值就可以）
000164   3cff     movai   0xff             	MOVAI	0xff
000165   579f     movra   0x19f            	MOVRA	_T1DATA
                                           ;	.line	463; "MC32P7311.c"	mode_flag = MODE_2;
000166   3c01     movai   0x1              	MOVAI	0x01
000167   562d     movra   0x2d             	MOVRA	_mode_flag
000168   a192     goto    0x192            	GOTO	_00376_DS_
                                           _00355_DS_
                                           ;	.line	465; "MC32P7311.c"	else if (MODE_2 == mode_flag)
000169   582d     movar   0x2d             	MOVAR	_mode_flag
00016a   3901     xorai   0x1              	XORAI	0x01
00016b   e587     jbset   0x187, 0x2       	JBSET	PFLAG,2
00016c   a174     goto    0x174            	GOTO	_00352_DS_
                                           ;	.line	468; "MC32P7311.c"	T0DATA = 103;
00016d   3c67     movai   0x67             	MOVAI	0x67
00016e   579b     movra   0x19b            	MOVRA	_T0DATA
                                           ;	.line	469; "MC32P7311.c"	T1DATA = 103; // 80.5%占空比
00016f   3c67     movai   0x67             	MOVAI	0x67
000170   579f     movra   0x19f            	MOVRA	_T1DATA
                                           ;	.line	471; "MC32P7311.c"	mode_flag = MODE_3;
000171   3c02     movai   0x2              	MOVAI	0x02
000172   562d     movra   0x2d             	MOVRA	_mode_flag
000173   a192     goto    0x192            	GOTO	_00376_DS_
                                           _00352_DS_
                                           ;	.line	473; "MC32P7311.c"	else if (MODE_3 == mode_flag)
000174   582d     movar   0x2d             	MOVAR	_mode_flag
000175   3902     xorai   0x2              	XORAI	0x02
000176   e587     jbset   0x187, 0x2       	JBSET	PFLAG,2
000177   a192     goto    0x192            	GOTO	_00376_DS_
                                           ;	.line	476; "MC32P7311.c"	T0DATA = 115;
000178   3c73     movai   0x73             	MOVAI	0x73
000179   579b     movra   0x19b            	MOVRA	_T0DATA
                                           ;	.line	477; "MC32P7311.c"	T1DATA = 115; // 89.9%占空比
00017a   3c73     movai   0x73             	MOVAI	0x73
00017b   579f     movra   0x19f            	MOVRA	_T1DATA
                                           ;	.line	479; "MC32P7311.c"	mode_flag = MODE_1;
00017c   762d     clrr    0x2d             	CLRR	_mode_flag
                                           ;	.line	482; "MC32P7311.c"	break;
00017d   a192     goto    0x192            	GOTO	_00376_DS_
                                           _00359_DS_
                                           ;	.line	485; "MC32P7311.c"	if (0 == FLAG_IS_DEVICE_OPEN)
00017e   f032     jbclr   0x32, 0          	JBCLR	_flag1,0
00017f   a18b     goto    0x18b            	GOTO	_00366_DS_
                                           ;	.line	488; "MC32P7311.c"	LED_WORKING_ON(); // 打开电源指示灯
000180   d994     bclr    0x194, 0x4       	BCLR	_IOP1bits,4
                                           ;	.line	489; "MC32P7311.c"	HEATING_ON();	  // 打开加热
000181   c594     bset    0x194, 0x2       	BSET	_IOP1bits,2
                                           ;	.line	490; "MC32P7311.c"	FLAG_IS_DEVICE_OPEN = 1;
000182   c032     bset    0x32, 0          	BSET	_flag1,0
                                           ;	.line	491; "MC32P7311.c"	FLAG_IS_HEATING = 1;
000183   c232     bset    0x32, 0x1        	BSET	_flag1,1
                                           ;	.line	494; "MC32P7311.c"	T0DATA = 115;
000184   3c73     movai   0x73             	MOVAI	0x73
000185   579b     movra   0x19b            	MOVRA	_T0DATA
                                           ;	.line	495; "MC32P7311.c"	T1DATA = 115;		// 约为 89.9%
000186   3c73     movai   0x73             	MOVAI	0x73
000187   579f     movra   0x19f            	MOVRA	_T1DATA
                                           ;	.line	496; "MC32P7311.c"	mode_flag = MODE_1; // 下一次切换模式时，会变成 MODE_2
000188   762d     clrr    0x2d             	CLRR	_mode_flag
                                           ;	.line	499; "MC32P7311.c"	PWM0OE = 1;
000189   cd98     bset    0x198, 0x6       	BSET	_T0CRbits,6
00018a   a192     goto    0x192            	GOTO	_00376_DS_
                                           _00366_DS_
                                           ;	.line	504; "MC32P7311.c"	LED_WORKING_OFF(); // 关闭电源指示灯
00018b   c994     bset    0x194, 0x4       	BSET	_IOP1bits,4
                                           ;	.line	505; "MC32P7311.c"	HEATING_OFF();	   // 关闭加热
00018c   d594     bclr    0x194, 0x2       	BCLR	_IOP1bits,2
                                           ;	.line	506; "MC32P7311.c"	FLAG_IS_DEVICE_OPEN = 0;
00018d   d032     bclr    0x32, 0          	BCLR	_flag1,0
                                           ;	.line	507; "MC32P7311.c"	FLAG_IS_HEATING = 0;
00018e   d232     bclr    0x32, 0x1        	BCLR	_flag1,1
                                           ;	.line	509; "MC32P7311.c"	mode_flag = MODE_1; // 下一次切换模式时，会变成 MODE_2
00018f   762d     clrr    0x2d             	CLRR	_mode_flag
                                           ;	.line	512; "MC32P7311.c"	PWM0OE = 0;
000190   dd98     bclr    0x198, 0x6       	BCLR	_T0CRbits,6
                                           ;	.line	513; "MC32P7311.c"	PWM1OE = 0;
000191   dd9c     bclr    0x19c, 0x6       	BCLR	_T1CRbits,6
                                           _00376_DS_
                                           ;	.line	521; "MC32P7311.c"	key_press_flag = KEY_NONE;
000192   762e     clrr    0x2e             	CLRR	_key_press_flag
                                           _00379_DS_
                                           ;	.line	523; "MC32P7311.c"	}
000193   000c     return                   	RETURN	
                                           ; exit point of _key_handle
                                           
                                           ;***
                                           ;  pBlock Stats: dbName = C
                                           ;***
                                           ;entry:  _key_scan	;Function start
                                           ; 2 exit points
                                           ;has an exit
                                           ;functions called:
                                           ;   _delay_ms
                                           ;   _delay_ms
                                           ;   _delay_ms
                                           ;   _delay_ms
                                           ;   _delay_ms
                                           ;   _delay_ms
                                           ;5 compiler assigned registers:
                                           ;   r0x101A
                                           ;   r0x101B
                                           ;   STK02
                                           ;   STK01
                                           ;   STK00
                                           ;; Starting pCode block
                                           _key_scan	;Function start
                                           ; 2 exit points
                                           ;	.line	348; "MC32P7311.c"	u8 cnt = 0;
000194   761c     clrr    0x1c             	CLRR	r0x101A
                                           ;	.line	350; "MC32P7311.c"	if (0 == KEY_POWER_PIN)
000195   f394     jbclr   0x194, 0x1       	JBCLR	_IOP1bits,1
000196   a1b6     goto    0x1b6            	GOTO	_00274_DS_
                                           ;	.line	352; "MC32P7311.c"	for (i = 0; i < 20; i++)
000197   762f     clrr    0x2f             	CLRR	_i
000198   761d     clrr    0x1d             	CLRR	r0x101B
                                           ;;unsigned compare: left < lit(0x14=20), size=1
                                           _00299_DS_
000199   3c14     movai   0x14             	MOVAI	0x14
00019a   482f     rsubar  0x2f             	RSUBAR	_i
00019b   f187     jbclr   0x187, 0         	JBCLR	PFLAG,0
00019c   a1aa     goto    0x1aa            	GOTO	_00331_DS_
                                           ;;genSkipc:3291: created from rifx:013B5EFC
                                           ;	.line	354; "MC32P7311.c"	if (0 == KEY_POWER_PIN)
00019d   f394     jbclr   0x194, 0x1       	JBCLR	_IOP1bits,1
00019e   a1a0     goto    0x1a0            	GOTO	_00266_DS_
                                           ;	.line	356; "MC32P7311.c"	cnt++;
00019f   661d     incr    0x1d             	INCR	r0x101B
                                           _00266_DS_
                                           ;	.line	358; "MC32P7311.c"	delay_ms(1);
0001a0   3c01     movai   0x1              	MOVAI	0x01
0001a1   5604     movra   0x4              	MOVRA	STK02
0001a2   3c00     movai   0                	MOVAI	0x00
0001a3   5605     movra   0x5              	MOVRA	STK01
0001a4   3c00     movai   0                	MOVAI	0x00
0001a5   5606     movra   0x6              	MOVRA	STK00
0001a6   3c00     movai   0                	MOVAI	0x00
0001a7   832c     call    0x32c            	CALL	_delay_ms
                                           ;	.line	352; "MC32P7311.c"	for (i = 0; i < 20; i++)
0001a8   662f     incr    0x2f             	INCR	_i
0001a9   a199     goto    0x199            	GOTO	_00299_DS_
                                           _00331_DS_
0001aa   581d     movar   0x1d             	MOVAR	r0x101B
0001ab   561c     movra   0x1c             	MOVRA	r0x101A
                                           ;;unsigned compare: left < lit(0xF=15), size=1
                                           ;	.line	361; "MC32P7311.c"	if (cnt >= 15)
0001ac   3c0f     movai   0xf              	MOVAI	0x0f
0001ad   481d     rsubar  0x1d             	RSUBAR	r0x101B
0001ae   e187     jbset   0x187, 0         	JBSET	PFLAG,0
0001af   a1b2     goto    0x1b2            	GOTO	_00270_DS_
                                           ;;genSkipc:3291: created from rifx:013B5EFC
                                           ;	.line	363; "MC32P7311.c"	key_press_flag = KEY_POWER_PRESS;
0001b0   3c03     movai   0x3              	MOVAI	0x03
0001b1   562e     movra   0x2e             	MOVRA	_key_press_flag
                                           _00270_DS_
                                           ;	.line	367; "MC32P7311.c"	while (0 == KEY_POWER_PIN)
0001b2   f394     jbclr   0x194, 0x1       	JBCLR	_IOP1bits,1
0001b3   a1b6     goto    0x1b6            	GOTO	_00274_DS_
                                           ;	.line	371; "MC32P7311.c"	__endasm;
                                           	;
0001b4   000e     clrwdt                   	CLRWDT;
                                           	
0001b5   a1b2     goto    0x1b2            	GOTO	_00270_DS_
                                           _00274_DS_
                                           ;	.line	375; "MC32P7311.c"	if (FLAG_IS_DEVICE_OPEN)
0001b6   e032     jbset   0x32, 0          	JBSET	_flag1,0
0001b7   a1f6     goto    0x1f6            	GOTO	_00307_DS_
                                           ;	.line	378; "MC32P7311.c"	if (0 == KEY_HEAT_PIN)
0001b8   fb90     jbclr   0x190, 0x5       	JBCLR	_IOP0bits,5
0001b9   a1d8     goto    0x1d8            	GOTO	_00294_DS_
                                           ;	.line	380; "MC32P7311.c"	for (i = 0; i < 20; i++)
0001ba   762f     clrr    0x2f             	CLRR	_i
0001bb   581c     movar   0x1c             	MOVAR	r0x101A
0001bc   561d     movra   0x1d             	MOVRA	r0x101B
                                           ;;unsigned compare: left < lit(0x14=20), size=1
                                           _00302_DS_
0001bd   3c14     movai   0x14             	MOVAI	0x14
0001be   482f     rsubar  0x2f             	RSUBAR	_i
0001bf   f187     jbclr   0x187, 0         	JBCLR	PFLAG,0
0001c0   a1ce     goto    0x1ce            	GOTO	_00277_DS_
                                           ;;genSkipc:3291: created from rifx:013B5EFC
                                           ;	.line	382; "MC32P7311.c"	if (0 == KEY_HEAT_PIN)
0001c1   fb90     jbclr   0x190, 0x5       	JBCLR	_IOP0bits,5
0001c2   a1c4     goto    0x1c4            	GOTO	_00276_DS_
                                           ;	.line	384; "MC32P7311.c"	cnt++;
0001c3   661d     incr    0x1d             	INCR	r0x101B
                                           _00276_DS_
                                           ;	.line	386; "MC32P7311.c"	delay_ms(1);
0001c4   3c01     movai   0x1              	MOVAI	0x01
0001c5   5604     movra   0x4              	MOVRA	STK02
0001c6   3c00     movai   0                	MOVAI	0x00
0001c7   5605     movra   0x5              	MOVRA	STK01
0001c8   3c00     movai   0                	MOVAI	0x00
0001c9   5606     movra   0x6              	MOVRA	STK00
0001ca   3c00     movai   0                	MOVAI	0x00
0001cb   832c     call    0x32c            	CALL	_delay_ms
                                           ;	.line	380; "MC32P7311.c"	for (i = 0; i < 20; i++)
0001cc   662f     incr    0x2f             	INCR	_i
0001cd   a1bd     goto    0x1bd            	GOTO	_00302_DS_
                                           ;;unsigned compare: left < lit(0xF=15), size=1
                                           _00277_DS_
                                           ;	.line	389; "MC32P7311.c"	if (cnt >= 15)
0001ce   3c0f     movai   0xf              	MOVAI	0x0f
0001cf   481d     rsubar  0x1d             	RSUBAR	r0x101B
0001d0   e187     jbset   0x187, 0         	JBSET	PFLAG,0
0001d1   a1d4     goto    0x1d4            	GOTO	_00280_DS_
                                           ;;genSkipc:3291: created from rifx:013B5EFC
                                           ;	.line	391; "MC32P7311.c"	key_press_flag = KEY_HEAT_PRESS;
0001d2   3c01     movai   0x1              	MOVAI	0x01
0001d3   562e     movra   0x2e             	MOVRA	_key_press_flag
                                           _00280_DS_
                                           ;	.line	394; "MC32P7311.c"	while (0 == KEY_HEAT_PIN) // 等待按键松开
0001d4   fb90     jbclr   0x190, 0x5       	JBCLR	_IOP0bits,5
0001d5   a1f6     goto    0x1f6            	GOTO	_00307_DS_
                                           ;	.line	398; "MC32P7311.c"	__endasm;
                                           	;
0001d6   000e     clrwdt                   	CLRWDT;
                                           	
0001d7   a1d4     goto    0x1d4            	GOTO	_00280_DS_
                                           _00294_DS_
                                           ;	.line	401; "MC32P7311.c"	else if (0 == KEY_CHANGE_PIN)
0001d8   f390     jbclr   0x190, 0x1       	JBCLR	_IOP0bits,1
0001d9   a1f6     goto    0x1f6            	GOTO	_00307_DS_
                                           ;	.line	403; "MC32P7311.c"	for (i = 0; i < 20; i++)
0001da   762f     clrr    0x2f             	CLRR	_i
                                           ;;unsigned compare: left < lit(0x14=20), size=1
                                           _00305_DS_
0001db   3c14     movai   0x14             	MOVAI	0x14
0001dc   482f     rsubar  0x2f             	RSUBAR	_i
0001dd   f187     jbclr   0x187, 0         	JBCLR	PFLAG,0
0001de   a1ec     goto    0x1ec            	GOTO	_00285_DS_
                                           ;;genSkipc:3291: created from rifx:013B5EFC
                                           ;	.line	405; "MC32P7311.c"	if (0 == KEY_CHANGE_PIN)
0001df   f390     jbclr   0x190, 0x1       	JBCLR	_IOP0bits,1
0001e0   a1e2     goto    0x1e2            	GOTO	_00284_DS_
                                           ;	.line	407; "MC32P7311.c"	cnt++;
0001e1   661c     incr    0x1c             	INCR	r0x101A
                                           _00284_DS_
                                           ;	.line	409; "MC32P7311.c"	delay_ms(1);
0001e2   3c01     movai   0x1              	MOVAI	0x01
0001e3   5604     movra   0x4              	MOVRA	STK02
0001e4   3c00     movai   0                	MOVAI	0x00
0001e5   5605     movra   0x5              	MOVRA	STK01
0001e6   3c00     movai   0                	MOVAI	0x00
0001e7   5606     movra   0x6              	MOVRA	STK00
0001e8   3c00     movai   0                	MOVAI	0x00
0001e9   832c     call    0x32c            	CALL	_delay_ms
                                           ;	.line	403; "MC32P7311.c"	for (i = 0; i < 20; i++)
0001ea   662f     incr    0x2f             	INCR	_i
0001eb   a1db     goto    0x1db            	GOTO	_00305_DS_
                                           ;;unsigned compare: left < lit(0xF=15), size=1
                                           _00285_DS_
                                           ;	.line	412; "MC32P7311.c"	if (cnt >= 15)
0001ec   3c0f     movai   0xf              	MOVAI	0x0f
0001ed   481c     rsubar  0x1c             	RSUBAR	r0x101A
0001ee   e187     jbset   0x187, 0         	JBSET	PFLAG,0
0001ef   a1f2     goto    0x1f2            	GOTO	_00288_DS_
                                           ;;genSkipc:3291: created from rifx:013B5EFC
                                           ;	.line	414; "MC32P7311.c"	key_press_flag = KEY_CHANGE_PRESS;
0001f0   3c02     movai   0x2              	MOVAI	0x02
0001f1   562e     movra   0x2e             	MOVRA	_key_press_flag
                                           _00288_DS_
                                           ;	.line	417; "MC32P7311.c"	while (0 == KEY_CHANGE_PIN) // 等待按键松开
0001f2   f390     jbclr   0x190, 0x1       	JBCLR	_IOP0bits,1
0001f3   a1f6     goto    0x1f6            	GOTO	_00307_DS_
                                           ;	.line	421; "MC32P7311.c"	__endasm;
                                           	;
0001f4   000e     clrwdt                   	CLRWDT;
                                           	
0001f5   a1f2     goto    0x1f2            	GOTO	_00288_DS_
                                           _00307_DS_
                                           ;	.line	425; "MC32P7311.c"	}
0001f6   000c     return                   	RETURN	
                                           ; exit point of _key_scan
                                           
                                           ;***
                                           ;  pBlock Stats: dbName = C
                                           ;***
                                           ;entry:  _Sys_Init	;Function start
                                           ; 2 exit points
                                           ;has an exit
                                           ;functions called:
                                           ;   _CLR_RAM
                                           ;   _IO_Init
                                           ;   _timer0_pwm_config
                                           ;   _timer1_pwm_config
                                           ;   _timer2_pwm_config
                                           ;   _key_config
                                           ;   _adc_config
                                           ;   _CLR_RAM
                                           ;   _IO_Init
                                           ;   _timer0_pwm_config
                                           ;   _timer1_pwm_config
                                           ;   _timer2_pwm_config
                                           ;   _key_config
                                           ;   _adc_config
                                           ;; Starting pCode block
                                           _Sys_Init	;Function start
                                           ; 2 exit points
                                           ;	.line	331; "MC32P7311.c"	GIE = 0;
0001f7   df88     bclr    0x188, 0x7       	BCLR	_MCRbits,7
                                           ;	.line	332; "MC32P7311.c"	CLR_RAM();
0001f8   82c4     call    0x2c4            	CALL	_CLR_RAM
                                           ;	.line	333; "MC32P7311.c"	IO_Init();
0001f9   82b5     call    0x2b5            	CALL	_IO_Init
                                           ;	.line	335; "MC32P7311.c"	timer0_pwm_config();
0001fa   82ad     call    0x2ad            	CALL	_timer0_pwm_config
                                           ;	.line	336; "MC32P7311.c"	timer1_pwm_config();
0001fb   82a5     call    0x2a5            	CALL	_timer1_pwm_config
                                           ;	.line	337; "MC32P7311.c"	timer2_pwm_config();
0001fc   829a     call    0x29a            	CALL	_timer2_pwm_config
                                           ;	.line	339; "MC32P7311.c"	key_config();
0001fd   828f     call    0x28f            	CALL	_key_config
                                           ;	.line	340; "MC32P7311.c"	adc_config();
0001fe   827f     call    0x27f            	CALL	_adc_config
                                           ;	.line	342; "MC32P7311.c"	GIE = 1;
0001ff   cf88     bset    0x188, 0x7       	BSET	_MCRbits,7
                                           ;	.line	343; "MC32P7311.c"	}
000200   000c     return                   	RETURN	
                                           ; exit point of _Sys_Init
                                           
                                           ;***
                                           ;  pBlock Stats: dbName = C
                                           ;***
                                           ;entry:  _adc_get_val	;Function start
                                           ; 2 exit points
                                           ;has an exit
                                           ;14 compiler assigned registers:
                                           ;   r0x100E
                                           ;   r0x100F
                                           ;   r0x1010
                                           ;   r0x1011
                                           ;   r0x1012
                                           ;   r0x1013
                                           ;   r0x1014
                                           ;   r0x1015
                                           ;   r0x1016
                                           ;   r0x1017
                                           ;   r0x1018
                                           ;   r0x1019
                                           ;   r0x101A
                                           ;   STK00
                                           ;; Starting pCode block
                                           _adc_get_val	;Function start
                                           ; 2 exit points
                                           ;	.line	296; "MC32P7311.c"	u16 g_tmpbuff = 0;
000201   760a     clrr    0xa              	CLRR	r0x100E
000202   7609     clrr    0x9              	CLRR	r0x100F
                                           ;	.line	297; "MC32P7311.c"	u16 g_adcmax = 0;
000203   7608     clrr    0x8              	CLRR	r0x1010
000204   7607     clrr    0x7              	CLRR	r0x1011
                                           ;	.line	298; "MC32P7311.c"	u16 g_adcmin = 0xFFFF;
000205   3cff     movai   0xff             	MOVAI	0xff
000206   560b     movra   0xb              	MOVRA	r0x1012
000207   560c     movra   0xc              	MOVRA	r0x1013
                                           ;	.line	301; "MC32P7311.c"	for (cnt = 0; cnt < 20; cnt++)
000208   760d     clrr    0xd              	CLRR	r0x1014
                                           _00215_DS_
                                           ;	.line	303; "MC32P7311.c"	ADEOC = 0; // 清除ADC转换完成标志位，启动AD转换
000209   d3b0     bclr    0x1b0, 0x1       	BCLR	_ADCR0bits,1
                                           _00204_DS_
                                           ;	.line	304; "MC32P7311.c"	while (!ADEOC)
00020a   e3b0     jbset   0x1b0, 0x1       	JBSET	_ADCR0bits,1
00020b   a20a     goto    0x20a            	GOTO	_00204_DS_
                                           ;	.line	306; "MC32P7311.c"	g_temp_value = ADRH; // 取出转换后的值
00020c   59b4     movar   0x1b4            	MOVAR	_ADRH
00020d   560e     movra   0xe              	MOVRA	r0x1015
00020e   760f     clrr    0xf              	CLRR	r0x1016
                                           ;	.line	307; "MC32P7311.c"	g_temp_value = g_temp_value << 4 | (ADRL & 0x0F);
00020f   440f     swapar  0xf              	SWAPAR	r0x1016
000210   3ef0     andai   0xf0             	ANDAI	0xf0
000211   5610     movra   0x10             	MOVRA	r0x1017
000212   440e     swapar  0xe              	SWAPAR	r0x1015
000213   5611     movra   0x11             	MOVRA	r0x1018
000214   3e0f     andai   0xf              	ANDAI	0x0f
000215   5e10     orra    0x10             	ORRA	r0x1017
000216   4211     xorra   0x11             	XORRA	r0x1018
000217   59b5     movar   0x1b5            	MOVAR	_ADRL
000218   560e     movra   0xe              	MOVRA	r0x1015
000219   760f     clrr    0xf              	CLRR	r0x1016
00021a   3c0f     movai   0xf              	MOVAI	0x0f
00021b   7a0e     andra   0xe              	ANDRA	r0x1015
00021c   760f     clrr    0xf              	CLRR	r0x1016
                                           ;;101	MOVAR	r0x1015
                                           ;;99	MOVRA	r0x1019
                                           ;;104	MOVAR	r0x1016
                                           ;;102	MOVRA	r0x101A
                                           ;;100	MOVAR	r0x1019
00021d   580e     movar   0xe              	MOVAR	r0x1015
00021e   5c11     orar    0x11             	ORAR	r0x1018
00021f   560e     movra   0xe              	MOVRA	r0x1015
                                           ;;103	MOVAR	r0x101A
000220   3c00     movai   0                	MOVAI	0x00
000221   5c10     orar    0x10             	ORAR	r0x1017
000222   560f     movra   0xf              	MOVRA	r0x1016
                                           ;;unsigned compare: left < lit(0x2=2), size=1
                                           ;	.line	308; "MC32P7311.c"	if (cnt < 2)
000223   3c02     movai   0x2              	MOVAI	0x02
000224   480d     rsubar  0xd              	RSUBAR	r0x1014
000225   e187     jbset   0x187, 0         	JBSET	PFLAG,0
000226   a245     goto    0x245            	GOTO	_00213_DS_
                                           ;;genSkipc:3291: created from rifx:013B5EFC
                                           ;	.line	310; "MC32P7311.c"	if (g_temp_value > g_adcmax)
000227   580f     movar   0xf              	MOVAR	r0x1016
000228   4807     rsubar  0x7              	RSUBAR	r0x1011
000229   e587     jbset   0x187, 0x2       	JBSET	PFLAG,2
00022a   a22d     goto    0x22d            	GOTO	_00255_DS_
00022b   580e     movar   0xe              	MOVAR	r0x1015
00022c   4808     rsubar  0x8              	RSUBAR	r0x1010
                                           _00255_DS_
00022d   f187     jbclr   0x187, 0         	JBCLR	PFLAG,0
00022e   a233     goto    0x233            	GOTO	_00210_DS_
                                           ;;genSkipc:3291: created from rifx:013B5EFC
                                           ;	.line	311; "MC32P7311.c"	g_adcmax = g_temp_value; // 最大
00022f   580e     movar   0xe              	MOVAR	r0x1015
000230   5608     movra   0x8              	MOVRA	r0x1010
000231   580f     movar   0xf              	MOVAR	r0x1016
000232   5607     movra   0x7              	MOVRA	r0x1011
                                           _00210_DS_
                                           ;	.line	312; "MC32P7311.c"	if (g_temp_value < g_adcmin)
000233   580c     movar   0xc              	MOVAR	r0x1013
000234   480f     rsubar  0xf              	RSUBAR	r0x1016
000235   e587     jbset   0x187, 0x2       	JBSET	PFLAG,2
000236   a239     goto    0x239            	GOTO	_00256_DS_
000237   580b     movar   0xb              	MOVAR	r0x1012
000238   480e     rsubar  0xe              	RSUBAR	r0x1015
                                           _00256_DS_
000239   f187     jbclr   0x187, 0         	JBCLR	PFLAG,0
00023a   a23f     goto    0x23f            	GOTO	_00212_DS_
                                           ;;genSkipc:3291: created from rifx:013B5EFC
                                           ;	.line	313; "MC32P7311.c"	g_adcmin = g_temp_value; // 最小
00023b   580e     movar   0xe              	MOVAR	r0x1015
00023c   560b     movra   0xb              	MOVRA	r0x1012
00023d   580f     movar   0xf              	MOVAR	r0x1016
00023e   560c     movra   0xc              	MOVRA	r0x1013
                                           _00212_DS_
                                           ;	.line	314; "MC32P7311.c"	g_tmpbuff += g_temp_value;
00023f   580e     movar   0xe              	MOVAR	r0x1015
000240   7e0a     addra   0xa              	ADDRA	r0x100E
000241   580f     movar   0xf              	MOVAR	r0x1016
000242   f187     jbclr   0x187, 0         	JBCLR	PFLAG,0
000243   600f     jzar    0xf              	JZAR	r0x1016
000244   7e09     addra   0x9              	ADDRA	r0x100F
                                           _00213_DS_
                                           ;	.line	301; "MC32P7311.c"	for (cnt = 0; cnt < 20; cnt++)
000245   660d     incr    0xd              	INCR	r0x1014
                                           ;;unsigned compare: left < lit(0x14=20), size=1
000246   3c14     movai   0x14             	MOVAI	0x14
000247   480d     rsubar  0xd              	RSUBAR	r0x1014
000248   e187     jbset   0x187, 0         	JBSET	PFLAG,0
000249   a209     goto    0x209            	GOTO	_00215_DS_
                                           ;;genSkipc:3291: created from rifx:013B5EFC
                                           ;	.line	316; "MC32P7311.c"	g_tmpbuff -= g_adcmax;			 // 去掉一个最大
00024a   5808     movar   0x8              	MOVAR	r0x1010
00024b   480a     rsubar  0xa              	RSUBAR	r0x100E
00024c   5608     movra   0x8              	MOVRA	r0x1010
00024d   5807     movar   0x7              	MOVAR	r0x1011
00024e   e187     jbset   0x187, 0         	JBSET	PFLAG,0
00024f   6407     incar   0x7              	INCAR	r0x1011
000250   4809     rsubar  0x9              	RSUBAR	r0x100F
000251   5607     movra   0x7              	MOVRA	r0x1011
                                           ;	.line	317; "MC32P7311.c"	g_tmpbuff -= g_adcmin;			 // 去掉一个最小
000252   580b     movar   0xb              	MOVAR	r0x1012
000253   4a08     rsubra  0x8              	RSUBRA	r0x1010
000254   580c     movar   0xc              	MOVAR	r0x1013
000255   e187     jbset   0x187, 0         	JBSET	PFLAG,0
000256   600c     jzar    0xc              	JZAR	r0x1013
000257   4a07     rsubra  0x7              	RSUBRA	r0x1011
                                           ;	.line	318; "MC32P7311.c"	g_temp_value = (g_tmpbuff >> 4); // 除以16，取平均值
000258   4408     swapar  0x8              	SWAPAR	r0x1010
000259   3e0f     andai   0xf              	ANDAI	0x0f
00025a   560a     movra   0xa              	MOVRA	r0x100E
00025b   4407     swapar  0x7              	SWAPAR	r0x1011
00025c   5609     movra   0x9              	MOVRA	r0x100F
00025d   3ef0     andai   0xf0             	ANDAI	0xf0
00025e   5e0a     orra    0xa              	ORRA	r0x100E
00025f   4209     xorra   0x9              	XORRA	r0x100F
                                           ;	.line	320; "MC32P7311.c"	return g_temp_value;
000260   580a     movar   0xa              	MOVAR	r0x100E
000261   5606     movra   0x6              	MOVRA	STK00
000262   5809     movar   0x9              	MOVAR	r0x100F
                                           ;	.line	321; "MC32P7311.c"	}
000263   000c     return                   	RETURN	
                                           ; exit point of _adc_get_val
                                           
                                           ;***
                                           ;  pBlock Stats: dbName = C
                                           ;***
                                           ;entry:  _adc_sel_pin	;Function start
                                           ; 2 exit points
                                           ;has an exit
                                           ;functions called:
                                           ;   _delay_ms
                                           ;   _delay_ms
                                           ;4 compiler assigned registers:
                                           ;   r0x101A
                                           ;   STK02
                                           ;   STK01
                                           ;   STK00
                                           ;; Starting pCode block
                                           _adc_sel_pin	;Function start
                                           ; 2 exit points
                                           ;	.line	269; "MC32P7311.c"	void adc_sel_pin(u8 adc_pin)
000264   561c     movra   0x1c             	MOVRA	r0x101A
                                           ;	.line	272; "MC32P7311.c"	switch (adc_pin)
000265   581c     movar   0x1c             	MOVAR	r0x101A
000266   3901     xorai   0x1              	XORAI	0x01
000267   e587     jbset   0x187, 0x2       	JBSET	PFLAG,2
000268   a26a     goto    0x26a            	GOTO	_00198_DS_
000269   a270     goto    0x270            	GOTO	_00184_DS_
                                           _00198_DS_
00026a   581c     movar   0x1c             	MOVAR	r0x101A
00026b   3902     xorai   0x2              	XORAI	0x02
00026c   e587     jbset   0x187, 0x2       	JBSET	PFLAG,2
00026d   a26f     goto    0x26f            	GOTO	_00199_DS_
00026e   a273     goto    0x273            	GOTO	_00185_DS_
                                           _00199_DS_
00026f   a276     goto    0x276            	GOTO	_00187_DS_
                                           _00184_DS_
                                           ;	.line	275; "MC32P7311.c"	ADCR0 &= ~(0x0F << 4); // 清空寄存器的通道选择位
000270   3c0f     movai   0xf              	MOVAI	0x0f
000271   7bb0     andra   0x1b0            	ANDRA	_ADCR0
                                           ;	.line	277; "MC32P7311.c"	break;
000272   a276     goto    0x276            	GOTO	_00187_DS_
                                           _00185_DS_
                                           ;	.line	280; "MC32P7311.c"	ADCR0 &= ~(0x0F << 4); // 清空寄存器的通道选择位
000273   3c0f     movai   0xf              	MOVAI	0x0f
000274   7bb0     andra   0x1b0            	ANDRA	_ADCR0
                                           ;	.line	281; "MC32P7311.c"	ADCR0 |= 0x01 << 4;	   // AIN1--P02;
000275   c9b0     bset    0x1b0, 0x4       	BSET	_ADCR0,4
                                           _00187_DS_
                                           ;	.line	288; "MC32P7311.c"	delay_ms(1); // 切换adc检测的引脚后，要延时一段时间，防止意料之外的检测结果
000276   3c01     movai   0x1              	MOVAI	0x01
000277   5604     movra   0x4              	MOVRA	STK02
000278   3c00     movai   0                	MOVAI	0x00
000279   5605     movra   0x5              	MOVRA	STK01
00027a   3c00     movai   0                	MOVAI	0x00
00027b   5606     movra   0x6              	MOVRA	STK00
00027c   3c00     movai   0                	MOVAI	0x00
00027d   832c     call    0x32c            	CALL	_delay_ms
                                           ;	.line	289; "MC32P7311.c"	}
00027e   000c     return                   	RETURN	
                                           ; exit point of _adc_sel_pin
                                           
                                           ;***
                                           ;  pBlock Stats: dbName = C
                                           ;***
                                           ;entry:  _adc_config	;Function start
                                           ; 2 exit points
                                           ;has an exit
                                           ;; Starting pCode block
                                           _adc_config	;Function start
                                           ; 2 exit points
                                           ;	.line	247; "MC32P7311.c"	P00PU = 0; // 关闭上下拉
00027f   d192     bclr    0x192, 0         	BCLR	_PUP0bits,0
                                           ;	.line	248; "MC32P7311.c"	P00PD = 0;
000280   d193     bclr    0x193, 0         	BCLR	_PDP0bits,0
                                           ;	.line	249; "MC32P7311.c"	P00OE = 0;	// 输入模式
000281   d191     bclr    0x191, 0         	BCLR	_OEP0bits,0
                                           ;	.line	250; "MC32P7311.c"	P00ANS = 1; // 模拟输入
000282   c1b6     bset    0x1b6, 0         	BSET	_ANSEL0bits,0
                                           ;	.line	253; "MC32P7311.c"	P02PU = 0; // 关闭上下拉
000283   d592     bclr    0x192, 0x2       	BCLR	_PUP0bits,2
                                           ;	.line	254; "MC32P7311.c"	P02PD = 0;
000284   d593     bclr    0x193, 0x2       	BCLR	_PDP0bits,2
                                           ;	.line	255; "MC32P7311.c"	P02OE = 0;	// 输入模式
000285   d591     bclr    0x191, 0x2       	BCLR	_OEP0bits,2
                                           ;	.line	256; "MC32P7311.c"	P02ANS = 1; // 模拟输入
000286   c3b6     bset    0x1b6, 0x1       	BSET	_ANSEL0bits,1
                                           ;	.line	258; "MC32P7311.c"	ADCR0 = 0x0A; // 12位精度、不启用ADC转换，不使能ADC
000287   3c0a     movai   0xa              	MOVAI	0x0a
000288   57b0     movra   0x1b0            	MOVRA	_ADCR0
                                           ;	.line	263; "MC32P7311.c"	ADCR1 = 0xE1; // 125K采样（最高精度）  内部3V参考电压
000289   3ce1     movai   0xe1             	MOVAI	0xe1
00028a   57b1     movra   0x1b1            	MOVRA	_ADCR1
                                           ;	.line	264; "MC32P7311.c"	ADCR2 = 0xFF; // ADC采样时间为15个ADC时钟
00028b   3cff     movai   0xff             	MOVAI	0xff
00028c   57b2     movra   0x1b2            	MOVRA	_ADCR2
                                           ;	.line	265; "MC32P7311.c"	ADON = 1;	  // 使能ADC
00028d   c1b0     bset    0x1b0, 0         	BSET	_ADCR0bits,0
                                           ;	.line	266; "MC32P7311.c"	}
00028e   000c     return                   	RETURN	
                                           ; exit point of _adc_config
                                           
                                           ;***
                                           ;  pBlock Stats: dbName = C
                                           ;***
                                           ;entry:  _key_config	;Function start
                                           ; 2 exit points
                                           ;has an exit
                                           ;; Starting pCode block
                                           _key_config	;Function start
                                           ; 2 exit points
                                           ;	.line	221; "MC32P7311.c"	P05PU = 1;
00028f   cb92     bset    0x192, 0x5       	BSET	_PUP0bits,5
                                           ;	.line	222; "MC32P7311.c"	P05OE = 0;
000290   db91     bclr    0x191, 0x5       	BCLR	_OEP0bits,5
                                           ;	.line	231; "MC32P7311.c"	MINT00 = 1; // MINT00、MINT01，组合配置INT0为下降沿中断
000291   c188     bset    0x188, 0         	BSET	_MCRbits,0
                                           ;	.line	232; "MC32P7311.c"	MINT01 = 0;
000292   d388     bclr    0x188, 0x1       	BCLR	_MCRbits,1
                                           ;	.line	233; "MC32P7311.c"	P11PU = 1;
000293   c396     bset    0x196, 0x1       	BSET	_PUP1bits,1
                                           ;	.line	234; "MC32P7311.c"	P11OE = 0;
000294   d395     bclr    0x195, 0x1       	BCLR	_OEP1bits,1
                                           ;	.line	235; "MC32P7311.c"	INT0IF = 0; // 清除中断标志
000295   d58b     bclr    0x18b, 0x2       	BCLR	_INTFbits,2
                                           ;	.line	236; "MC32P7311.c"	INT0IE = 1; // 外部中断使能
000296   c58a     bset    0x18a, 0x2       	BSET	_INTEbits,2
                                           ;	.line	239; "MC32P7311.c"	P01PU = 1;
000297   c392     bset    0x192, 0x1       	BSET	_PUP0bits,1
                                           ;	.line	240; "MC32P7311.c"	P01OE = 0;
000298   d391     bclr    0x191, 0x1       	BCLR	_OEP0bits,1
                                           ;	.line	241; "MC32P7311.c"	}
000299   000c     return                   	RETURN	
                                           ; exit point of _key_config
                                           
                                           ;***
                                           ;  pBlock Stats: dbName = C
                                           ;***
                                           ;entry:  _timer2_pwm_config	;Function start
                                           ; 2 exit points
                                           ;has an exit
                                           ;; Starting pCode block
                                           _timer2_pwm_config	;Function start
                                           ; 2 exit points
                                           ;	.line	206; "MC32P7311.c"	T2LOAD = 52 - 1;
00029a   3c33     movai   0x33             	MOVAI	0x33
00029b   57a2     movra   0x1a2            	MOVRA	_T2LOAD
                                           ;	.line	208; "MC32P7311.c"	T2DATA = 23; // 占空比 == TxDATA / TxLOAD   实际测得是46.15%占空比
00029c   3c17     movai   0x17             	MOVAI	0x17
00029d   57a3     movra   0x1a3            	MOVRA	_T2DATA
                                           ;	.line	210; "MC32P7311.c"	PWM2OE = 0; // 禁止PWM输出
00029e   dda0     bclr    0x1a0, 0x6       	BCLR	_T2CRbits,6
                                           ;	.line	212; "MC32P7311.c"	TC2EN = 1;
00029f   cfa0     bset    0x1a0, 0x7       	BSET	_T2CRbits,7
                                           ;	.line	213; "MC32P7311.c"	}
0002a0   000c     return                   	RETURN	
                                           ; exit point of _timer2_pwm_config
                                           
                                           ;***
                                           ;  pBlock Stats: dbName = C
                                           ;***
                                           ;entry:  _timer1_pwm_close	;Function start
                                           ; 2 exit points
                                           ;has an exit
                                           ;; Starting pCode block
                                           _timer1_pwm_close	;Function start
                                           ; 2 exit points
                                           ;	.line	180; "MC32P7311.c"	PWM1OE = 0;
0002a1   dd9c     bclr    0x19c, 0x6       	BCLR	_T1CRbits,6
                                           ;	.line	181; "MC32P7311.c"	}
0002a2   000c     return                   	RETURN	
                                           ; exit point of _timer1_pwm_close
                                           
                                           ;***
                                           ;  pBlock Stats: dbName = C
                                           ;***
                                           ;entry:  _timer1_pwm_open	;Function start
                                           ; 2 exit points
                                           ;has an exit
                                           ;; Starting pCode block
                                           _timer1_pwm_open	;Function start
                                           ; 2 exit points
                                           ;	.line	174; "MC32P7311.c"	PWM1OE = 1;
0002a3   cd9c     bset    0x19c, 0x6       	BSET	_T1CRbits,6
                                           ;	.line	175; "MC32P7311.c"	}
0002a4   000c     return                   	RETURN	
                                           ; exit point of _timer1_pwm_open
                                           
                                           ;***
                                           ;  pBlock Stats: dbName = C
                                           ;***
                                           ;entry:  _timer1_pwm_config	;Function start
                                           ; 2 exit points
                                           ;has an exit
                                           ;; Starting pCode block
                                           _timer1_pwm_config	;Function start
                                           ; 2 exit points
                                           ;	.line	147; "MC32P7311.c"	T1CR |= 0x02; // 4分频
0002a5   c39c     bset    0x19c, 0x1       	BSET	_T1CR,1
                                           ;	.line	148; "MC32P7311.c"	T1LOAD = 128 - 1;
0002a6   3c7f     movai   0x7f             	MOVAI	0x7f
0002a7   579e     movra   0x19e            	MOVRA	_T1LOAD
                                           ;	.line	149; "MC32P7311.c"	T1DATA = 25; // 占空比 == T1DATA / T1LOAD
0002a8   3c19     movai   0x19             	MOVAI	0x19
0002a9   579f     movra   0x19f            	MOVRA	_T1DATA
                                           ;	.line	150; "MC32P7311.c"	PWM1OE = 0;	 // 禁止PWM1输出
0002aa   dd9c     bclr    0x19c, 0x6       	BCLR	_T1CRbits,6
                                           ;	.line	151; "MC32P7311.c"	TC1EN = 1;	 // 启动定时器
0002ab   cf9c     bset    0x19c, 0x7       	BSET	_T1CRbits,7
                                           ;	.line	169; "MC32P7311.c"	}
0002ac   000c     return                   	RETURN	
                                           ; exit point of _timer1_pwm_config
                                           
                                           ;***
                                           ;  pBlock Stats: dbName = C
                                           ;***
                                           ;entry:  _timer0_pwm_config	;Function start
                                           ; 2 exit points
                                           ;has an exit
                                           ;; Starting pCode block
                                           _timer0_pwm_config	;Function start
                                           ; 2 exit points
                                           ;	.line	117; "MC32P7311.c"	T0CR |= 0x02; // 4分频
0002ad   c398     bset    0x198, 0x1       	BSET	_T0CR,1
                                           ;	.line	118; "MC32P7311.c"	T0LOAD = 128 - 1;
0002ae   3c7f     movai   0x7f             	MOVAI	0x7f
0002af   579a     movra   0x19a            	MOVRA	_T0LOAD
                                           ;	.line	119; "MC32P7311.c"	T0DATA = 25; // 占空比 == T0DATA / T0LOAD
0002b0   3c19     movai   0x19             	MOVAI	0x19
0002b1   579b     movra   0x19b            	MOVRA	_T0DATA
                                           ;	.line	120; "MC32P7311.c"	PWM0OE = 0;	 // 禁止PWM输出
0002b2   dd98     bclr    0x198, 0x6       	BCLR	_T0CRbits,6
                                           ;	.line	122; "MC32P7311.c"	TC0EN = 1; // 启动定时器
0002b3   cf98     bset    0x198, 0x7       	BSET	_T0CRbits,7
                                           ;	.line	140; "MC32P7311.c"	}
0002b4   000c     return                   	RETURN	
                                           ; exit point of _timer0_pwm_config
                                           
                                           ;***
                                           ;  pBlock Stats: dbName = C
                                           ;***
                                           ;entry:  _IO_Init	;Function start
                                           ; 2 exit points
                                           ;has an exit
                                           ;; Starting pCode block
                                           _IO_Init	;Function start
                                           ; 2 exit points
                                           ;	.line	97; "MC32P7311.c"	IOP0 = 0x00;   // io口数据位
0002b5   7790     clrr    0x190            	CLRR	_IOP0
                                           ;	.line	98; "MC32P7311.c"	OEP0 = 0xFF;   // io口方向 1:out  0:in   P00、1输出为开漏
0002b6   3cff     movai   0xff             	MOVAI	0xff
0002b7   5791     movra   0x191            	MOVRA	_OEP0
                                           ;	.line	99; "MC32P7311.c"	PUP0 = 0x00;   // io口上拉电阻   1:enable  0:disable
0002b8   7792     clrr    0x192            	CLRR	_PUP0
                                           ;	.line	100; "MC32P7311.c"	PDP0 = 0x00;   // io口下拉电阻   1:enable  0:disable
0002b9   7793     clrr    0x193            	CLRR	_PDP0
                                           ;	.line	101; "MC32P7311.c"	ANSEL0 = 0x00; // io类型选择  1:模拟输入  0:通用io
0002ba   77b6     clrr    0x1b6            	CLRR	_ANSEL0
                                           ;	.line	103; "MC32P7311.c"	IOP1 = 0x00;   // io口数据位
0002bb   7794     clrr    0x194            	CLRR	_IOP1
                                           ;	.line	104; "MC32P7311.c"	OEP1 = 0xFF;   // io口方向 1:out  0:in   P13输出为开漏
0002bc   3cff     movai   0xff             	MOVAI	0xff
0002bd   5795     movra   0x195            	MOVRA	_OEP1
                                           ;	.line	105; "MC32P7311.c"	PUP1 = 0x00;   // io口上拉电阻   1:enable  0:disable
0002be   7796     clrr    0x196            	CLRR	_PUP1
                                           ;	.line	106; "MC32P7311.c"	PDP1 = 0x00;   // io口下拉电阻   1:enable  0:disable
0002bf   7797     clrr    0x197            	CLRR	_PDP1
                                           ;	.line	107; "MC32P7311.c"	ANSEL1 = 0x00; // io类型选择  1:模拟输入  0:通用io
0002c0   77b7     clrr    0x1b7            	CLRR	_ANSEL1
                                           ;	.line	109; "MC32P7311.c"	DRVCR = 0x80;
0002c1   3c80     movai   0x80             	MOVAI	0x80
0002c2   578c     movra   0x18c            	MOVRA	_DRVCR
                                           ;	.line	110; "MC32P7311.c"	}
0002c3   000c     return                   	RETURN	
                                           ; exit point of _IO_Init
                                           
                                           ;***
                                           ;  pBlock Stats: dbName = C
                                           ;***
                                           ;entry:  _CLR_RAM	;Function start
                                           ; 2 exit points
                                           ;has an exit
                                           ;; Starting pCode block
                                           _CLR_RAM	;Function start
                                           ; 2 exit points
                                           ;	.line	82; "MC32P7311.c"	for (FSR0 = 0; FSR0 < 0xff; FSR0++)
0002c4   7784     clrr    0x184            	CLRR	_FSR0
                                           ;;unsigned compare: left < lit(0xFF=255), size=1
                                           _00147_DS_
0002c5   3cff     movai   0xff             	MOVAI	0xff
0002c6   4984     rsubar  0x184            	RSUBAR	_FSR0
0002c7   f187     jbclr   0x187, 0         	JBCLR	PFLAG,0
0002c8   a2cc     goto    0x2cc            	GOTO	_00145_DS_
                                           ;;genSkipc:3291: created from rifx:013B5EFC
                                           ;	.line	84; "MC32P7311.c"	INDF0 = 0x00;
0002c9   7780     clrr    0x180            	CLRR	_INDF0
                                           ;	.line	82; "MC32P7311.c"	for (FSR0 = 0; FSR0 < 0xff; FSR0++)
0002ca   6784     incr    0x184            	INCR	_FSR0
0002cb   a2c5     goto    0x2c5            	GOTO	_00147_DS_
                                           _00145_DS_
                                           ;	.line	86; "MC32P7311.c"	FSR0 = 0xFF;
0002cc   3cff     movai   0xff             	MOVAI	0xff
0002cd   5784     movra   0x184            	MOVRA	_FSR0
                                           ;	.line	87; "MC32P7311.c"	INDF0 = 0x00;
0002ce   7780     clrr    0x180            	CLRR	_INDF0
                                           ;	.line	88; "MC32P7311.c"	}
0002cf   000c     return                   	RETURN	
                                           ; exit point of _CLR_RAM
                                           
                                           ;***
                                           ;  pBlock Stats: dbName = C
                                           ;***
                                           ;entry:  _send_32bits_data_by_irsir	;Function start
                                           ; 2 exit points
                                           ;has an exit
                                           ;functions called:
                                           ;   _delay_ms
                                           ;   _delay_ms
                                           ;   _delay_ms
                                           ;   _delay_ms
                                           ;   _delay_ms
                                           ;   _delay_ms
                                           ;   _delay_ms
                                           ;   _delay_ms
                                           ;   _delay_ms
                                           ;   _delay_ms
                                           ;   _delay_ms
                                           ;   _delay_ms
                                           ;12 compiler assigned registers:
                                           ;   r0x101F
                                           ;   STK00
                                           ;   r0x1020
                                           ;   STK01
                                           ;   r0x1021
                                           ;   STK02
                                           ;   r0x1022
                                           ;   r0x1023
                                           ;   r0x1024
                                           ;   r0x1025
                                           ;   r0x1026
                                           ;   r0x1027
                                           ;; Starting pCode block
                                           _send_32bits_data_by_irsir	;Function start
                                           ; 2 exit points
                                           ;	.line	34; "MC32P7311.c"	void send_32bits_data_by_irsir(u32 send_data)
0002d0   5616     movra   0x16             	MOVRA	r0x101F
0002d1   5806     movar   0x6              	MOVAR	STK00
0002d2   5615     movra   0x15             	MOVRA	r0x1020
0002d3   5805     movar   0x5              	MOVAR	STK01
0002d4   5614     movra   0x14             	MOVRA	r0x1021
0002d5   5804     movar   0x4              	MOVAR	STK02
0002d6   5613     movra   0x13             	MOVRA	r0x1022
                                           ;	.line	38; "MC32P7311.c"	P10D = 1;
0002d7   c194     bset    0x194, 0         	BSET	_IOP1bits,0
                                           ;	.line	39; "MC32P7311.c"	delay_ms(15);
0002d8   3c0f     movai   0xf              	MOVAI	0x0f
0002d9   5604     movra   0x4              	MOVRA	STK02
0002da   3c00     movai   0                	MOVAI	0x00
0002db   5605     movra   0x5              	MOVRA	STK01
0002dc   3c00     movai   0                	MOVAI	0x00
0002dd   5606     movra   0x6              	MOVRA	STK00
0002de   3c00     movai   0                	MOVAI	0x00
0002df   832c     call    0x32c            	CALL	_delay_ms
                                           ;	.line	41; "MC32P7311.c"	P10D = 0;
0002e0   d194     bclr    0x194, 0         	BCLR	_IOP1bits,0
                                           ;	.line	42; "MC32P7311.c"	delay_ms(7); // 延时4.5ms
0002e1   3c07     movai   0x7              	MOVAI	0x07
0002e2   5604     movra   0x4              	MOVRA	STK02
0002e3   3c00     movai   0                	MOVAI	0x00
0002e4   5605     movra   0x5              	MOVRA	STK01
0002e5   3c00     movai   0                	MOVAI	0x00
0002e6   5606     movra   0x6              	MOVRA	STK00
0002e7   3c00     movai   0                	MOVAI	0x00
0002e8   832c     call    0x32c            	CALL	_delay_ms
                                           ;	.line	44; "MC32P7311.c"	for (u8 i = 0; i < 32; i++)
0002e9   7617     clrr    0x17             	CLRR	r0x1023
                                           ;;unsigned compare: left < lit(0x20=32), size=1
                                           _00121_DS_
0002ea   3c20     movai   0x20             	MOVAI	0x20
0002eb   4817     rsubar  0x17             	RSUBAR	r0x1023
0002ec   f187     jbclr   0x187, 0         	JBCLR	PFLAG,0
0002ed   a32a     goto    0x32a            	GOTO	_00119_DS_
                                           ;;genSkipc:3291: created from rifx:013B5EFC
                                           ;	.line	46; "MC32P7311.c"	if ((send_data >> i) & 0x01)
0002ee   5816     movar   0x16             	MOVAR	r0x101F
0002ef   561b     movra   0x1b             	MOVRA	r0x1024
0002f0   5815     movar   0x15             	MOVAR	r0x1020
0002f1   561a     movra   0x1a             	MOVRA	r0x1025
0002f2   5814     movar   0x14             	MOVAR	r0x1021
0002f3   5619     movra   0x19             	MOVRA	r0x1026
0002f4   5813     movar   0x13             	MOVAR	r0x1022
0002f5   5618     movra   0x18             	MOVRA	r0x1027
0002f6   5817     movar   0x17             	MOVAR	r0x1023
0002f7   3a00     isubai  0                	ISUBAI	0x00
0002f8   f587     jbclr   0x187, 0x2       	JBCLR	PFLAG,2
0002f9   a301     goto    0x301            	GOTO	_00140_DS_
                                           _00139_DS_
0002fa   4e1b     rrr     0x1b             	RRR	r0x1024
0002fb   4e1a     rrr     0x1a             	RRR	r0x1025
0002fc   4e19     rrr     0x19             	RRR	r0x1026
0002fd   4e18     rrr     0x18             	RRR	r0x1027
0002fe   3f01     addai   0x1              	ADDAI	0x01
0002ff   e187     jbset   0x187, 0         	JBSET	PFLAG,0
000300   a2fa     goto    0x2fa            	GOTO	_00139_DS_
                                           _00140_DS_
000301   e018     jbset   0x18, 0          	JBSET	r0x1027,0
000302   a316     goto    0x316            	GOTO	_00117_DS_
                                           ;	.line	50; "MC32P7311.c"	P10D = 1;
000303   c194     bset    0x194, 0         	BSET	_IOP1bits,0
                                           ;	.line	51; "MC32P7311.c"	delay_ms(6); //
000304   3c06     movai   0x6              	MOVAI	0x06
000305   5604     movra   0x4              	MOVRA	STK02
000306   3c00     movai   0                	MOVAI	0x00
000307   5605     movra   0x5              	MOVRA	STK01
000308   3c00     movai   0                	MOVAI	0x00
000309   5606     movra   0x6              	MOVRA	STK00
00030a   3c00     movai   0                	MOVAI	0x00
00030b   832c     call    0x32c            	CALL	_delay_ms
                                           ;	.line	53; "MC32P7311.c"	P10D = 0;
00030c   d194     bclr    0x194, 0         	BCLR	_IOP1bits,0
                                           ;	.line	54; "MC32P7311.c"	delay_ms(17); //
00030d   3c11     movai   0x11             	MOVAI	0x11
00030e   5604     movra   0x4              	MOVRA	STK02
00030f   3c00     movai   0                	MOVAI	0x00
000310   5605     movra   0x5              	MOVRA	STK01
000311   3c00     movai   0                	MOVAI	0x00
000312   5606     movra   0x6              	MOVRA	STK00
000313   3c00     movai   0                	MOVAI	0x00
000314   832c     call    0x32c            	CALL	_delay_ms
000315   a328     goto    0x328            	GOTO	_00122_DS_
                                           _00117_DS_
                                           ;	.line	60; "MC32P7311.c"	P10D = 1;
000316   c194     bset    0x194, 0         	BSET	_IOP1bits,0
                                           ;	.line	61; "MC32P7311.c"	delay_ms(6); //
000317   3c06     movai   0x6              	MOVAI	0x06
000318   5604     movra   0x4              	MOVRA	STK02
000319   3c00     movai   0                	MOVAI	0x00
00031a   5605     movra   0x5              	MOVRA	STK01
00031b   3c00     movai   0                	MOVAI	0x00
00031c   5606     movra   0x6              	MOVRA	STK00
00031d   3c00     movai   0                	MOVAI	0x00
00031e   832c     call    0x32c            	CALL	_delay_ms
                                           ;	.line	63; "MC32P7311.c"	P10D = 0;
00031f   d194     bclr    0x194, 0         	BCLR	_IOP1bits,0
                                           ;	.line	64; "MC32P7311.c"	delay_ms(6); //
000320   3c06     movai   0x6              	MOVAI	0x06
000321   5604     movra   0x4              	MOVRA	STK02
000322   3c00     movai   0                	MOVAI	0x00
000323   5605     movra   0x5              	MOVRA	STK01
000324   3c00     movai   0                	MOVAI	0x00
000325   5606     movra   0x6              	MOVRA	STK00
000326   3c00     movai   0                	MOVAI	0x00
000327   832c     call    0x32c            	CALL	_delay_ms
                                           _00122_DS_
                                           ;	.line	44; "MC32P7311.c"	for (u8 i = 0; i < 32; i++)
000328   6617     incr    0x17             	INCR	r0x1023
000329   a2ea     goto    0x2ea            	GOTO	_00121_DS_
                                           _00119_DS_
                                           ;	.line	70; "MC32P7311.c"	P10D = 0;
00032a   d194     bclr    0x194, 0         	BCLR	_IOP1bits,0
                                           ;	.line	71; "MC32P7311.c"	}
00032b   000c     return                   	RETURN	
                                           ; exit point of _send_32bits_data_by_irsir
                                           
                                           ;***
                                           ;  pBlock Stats: dbName = C
                                           ;***
                                           ;entry:  _delay_ms	;Function start
                                           ; 2 exit points
                                           ;has an exit
                                           ;15 compiler assigned registers:
                                           ;   r0x100E
                                           ;   STK00
                                           ;   r0x100F
                                           ;   STK01
                                           ;   r0x1010
                                           ;   STK02
                                           ;   r0x1011
                                           ;   r0x1012
                                           ;   r0x1013
                                           ;   r0x1014
                                           ;   r0x1015
                                           ;   r0x1016
                                           ;   r0x1017
                                           ;   r0x1018
                                           ;   r0x1019
                                           ;; Starting pCode block
                                           _delay_ms	;Function start
                                           ; 2 exit points
                                           ;	.line	15; "MC32P7311.c"	void delay_ms(u32 xms)
00032c   560a     movra   0xa              	MOVRA	r0x100E
00032d   5806     movar   0x6              	MOVAR	STK00
00032e   5609     movra   0x9              	MOVRA	r0x100F
00032f   5805     movar   0x5              	MOVAR	STK01
000330   5608     movra   0x8              	MOVRA	r0x1010
000331   5804     movar   0x4              	MOVAR	STK02
000332   5607     movra   0x7              	MOVRA	r0x1011
                                           _00108_DS_
                                           ;	.line	17; "MC32P7311.c"	while (xms)
000333   5807     movar   0x7              	MOVAR	r0x1011
000334   5c08     orar    0x8              	ORAR	r0x1010
000335   5c09     orar    0x9              	ORAR	r0x100F
000336   5c0a     orar    0xa              	ORAR	r0x100E
000337   f587     jbclr   0x187, 0x2       	JBCLR	PFLAG,2
000338   a367     goto    0x367            	GOTO	_00111_DS_
                                           ;	.line	20; "MC32P7311.c"	while (i--)
000339   3c1f     movai   0x1f             	MOVAI	0x1f
00033a   560b     movra   0xb              	MOVRA	r0x1012
00033b   3c01     movai   0x1              	MOVAI	0x01
00033c   560c     movra   0xc              	MOVRA	r0x1013
00033d   760d     clrr    0xd              	CLRR	r0x1014
00033e   760e     clrr    0xe              	CLRR	r0x1015
                                           _00105_DS_
00033f   580b     movar   0xb              	MOVAR	r0x1012
000340   560f     movra   0xf              	MOVRA	r0x1016
000341   580c     movar   0xc              	MOVAR	r0x1013
000342   5610     movra   0x10             	MOVRA	r0x1017
000343   580d     movar   0xd              	MOVAR	r0x1014
000344   5611     movra   0x11             	MOVRA	r0x1018
000345   580e     movar   0xe              	MOVAR	r0x1015
000346   5612     movra   0x12             	MOVRA	r0x1019
000347   3cff     movai   0xff             	MOVAI	0xff
000348   7e0b     addra   0xb              	ADDRA	r0x1012
000349   3cff     movai   0xff             	MOVAI	0xff
00034a   e187     jbset   0x187, 0         	JBSET	PFLAG,0
00034b   7e0c     addra   0xc              	ADDRA	r0x1013
00034c   3cff     movai   0xff             	MOVAI	0xff
00034d   e187     jbset   0x187, 0         	JBSET	PFLAG,0
00034e   7e0d     addra   0xd              	ADDRA	r0x1014
00034f   3cff     movai   0xff             	MOVAI	0xff
000350   e187     jbset   0x187, 0         	JBSET	PFLAG,0
000351   7e0e     addra   0xe              	ADDRA	r0x1015
000352   580f     movar   0xf              	MOVAR	r0x1016
000353   5c10     orar    0x10             	ORAR	r0x1017
000354   5c11     orar    0x11             	ORAR	r0x1018
000355   5c12     orar    0x12             	ORAR	r0x1019
000356   f587     jbclr   0x187, 0x2       	JBCLR	PFLAG,2
000357   a35a     goto    0x35a            	GOTO	_00107_DS_
                                           ;	.line	22; "MC32P7311.c"	Nop();
000358   0000     nop                      	nop	
000359   a33f     goto    0x33f            	GOTO	_00105_DS_
                                           _00107_DS_
                                           ;	.line	27; "MC32P7311.c"	__endasm;
                                           	;
00035a   000e     clrwdt                   	CLRWDT;
                                           	
                                           ;	.line	28; "MC32P7311.c"	xms--;
00035b   3cff     movai   0xff             	MOVAI	0xff
00035c   7e07     addra   0x7              	ADDRA	r0x1011
00035d   3cff     movai   0xff             	MOVAI	0xff
00035e   e187     jbset   0x187, 0         	JBSET	PFLAG,0
00035f   7e08     addra   0x8              	ADDRA	r0x1010
000360   3cff     movai   0xff             	MOVAI	0xff
000361   e187     jbset   0x187, 0         	JBSET	PFLAG,0
000362   7e09     addra   0x9              	ADDRA	r0x100F
000363   3cff     movai   0xff             	MOVAI	0xff
000364   e187     jbset   0x187, 0         	JBSET	PFLAG,0
000365   7e0a     addra   0xa              	ADDRA	r0x100E
000366   a333     goto    0x333            	GOTO	_00108_DS_
                                           _00111_DS_
                                           ;	.line	30; "MC32P7311.c"	}
000367   000c     return                   	RETURN	
                                           ; exit point of _delay_ms
                                           
                                           
                                           ;	code size estimation:
                                           ;	  846+    0 =   846 instructions ( 1692 byte)
                                           
                                           	end
                                           ;--------------------------------------------------------
                                           ; File Created by SN-SDCC : SinoMCU ANSI-C Compiler
                                           ; Version 2.0.0 (Dec 11 2019) (MINGW32)
                                           ; This file was generated Mon Sep 23 15:39:32 2024
                                           ;--------------------------------------------------------
                                           ; MC32 port for the RISC core
                                           ;--------------------------------------------------------
                                           ;	.file	"MC32P7311.c"
                                           	list	p=7311
                                           	radix dec
                                           	include "7311.inc"
                                           ;--------------------------------------------------------
                                           ; external declarations
                                           ;--------------------------------------------------------
                                           	extern	_INDF0bits
                                           	extern	_INDF1bits
                                           	extern	_INDF2bits
                                           	extern	_HIBYTEbits
                                           	extern	_FSR0bits
                                           	extern	_FSR1bits
                                           	extern	_PCLbits
                                           	extern	_PFLAGbits
                                           	extern	_MCRbits
                                           	extern	_INDF3bits
                                           	extern	_INTEbits
                                           	extern	_INTFbits
                                           	extern	_DRVCRbits
                                           	extern	_KBCRbits
                                           	extern	_IOP0bits
                                           	extern	_OEP0bits
                                           	extern	_PUP0bits
                                           	extern	_PDP0bits
                                           	extern	_IOP1bits
                                           	extern	_OEP1bits
                                           	extern	_PUP1bits
                                           	extern	_PDP1bits
                                           	extern	_T0CRbits
                                           	extern	_T0CNTbits
                                           	extern	_T0LOADbits
                                           	extern	_T0DATAbits
                                           	extern	_T1CRbits
                                           	extern	_T1CNTbits
                                           	extern	_T1LOADbits
                                           	extern	_T1DATAbits
                                           	extern	_T2CRbits
                                           	extern	_T2CNTbits
                                           	extern	_T2LOADbits
                                           	extern	_T2DATAbits
                                           	extern	_T3CRbits
                                           	extern	_T3CNTbits
                                           	extern	_T3LOADbits
                                           	extern	_PWM0DEbits
                                           	extern	_PWM1DEbits
                                           	extern	_PWM2DEbits
                                           	extern	_PWMCR0bits
                                           	extern	_PWMCR1bits
                                           	extern	_OSCMbits
                                           	extern	_LVDCRbits
                                           	extern	_ADCR0bits
                                           	extern	_ADCR1bits
                                           	extern	_ADCR2bits
                                           	extern	_ADRHbits
                                           	extern	_ADRLbits
                                           	extern	_ANSEL0bits
                                           	extern	_ANSEL1bits
                                           	extern	_OSCCALHbits
                                           	extern	_OSCCALLbits
                                           	extern	_INDF0
                                           	extern	_INDF1
                                           	extern	_INDF2
                                           	extern	_HIBYTE
                                           	extern	_FSR0
                                           	extern	_FSR1
                                           	extern	_PCL
                                           	extern	_PFLAG
                                           	extern	_MCR
                                           	extern	_INDF3
                                           	extern	_INTE
                                           	extern	_INTF
                                           	extern	_DRVCR
                                           	extern	_KBCR
                                           	extern	_IOP0
                                           	extern	_OEP0
                                           	extern	_PUP0
                                           	extern	_PDP0
                                           	extern	_IOP1
                                           	extern	_OEP1
                                           	extern	_PUP1
                                           	extern	_PDP1
                                           	extern	_T0CR
                                           	extern	_T0CNT
                                           	extern	_T0LOAD
                                           	extern	_T0DATA
                                           	extern	_T1CR
                                           	extern	_T1CNT
                                           	extern	_T1LOAD
                                           	extern	_T1DATA
                                           	extern	_T2CR
                                           	extern	_T2CNT
                                           	extern	_T2LOAD
                                           	extern	_T2DATA
                                           	extern	_T3CR
                                           	extern	_T3CNT
                                           	extern	_T3LOAD
                                           	extern	_PWM0DE
                                           	extern	_PWM1DE
                                           	extern	_PWM2DE
                                           	extern	_PWMCR0
                                           	extern	_PWMCR1
                                           	extern	_OSCM
                                           	extern	_LVDCR
                                           	extern	_ADCR0
                                           	extern	_ADCR1
                                           	extern	_ADCR2
                                           	extern	_ADRH
                                           	extern	_ADRL
                                           	extern	_ANSEL0
                                           	extern	_ANSEL1
                                           	extern	_OSCCALH
                                           	extern	_OSCCALL
                                           ;--------------------------------------------------------
                                           ; global declarations
                                           ;--------------------------------------------------------
                                           	global	_Sys_Init
                                           	global	_IO_Init
                                           	global	_CLR_RAM
                                           	global	_delay_ms
                                           	global	_send_32bits_data_by_irsir
                                           	global	_timer0_pwm_config
                                           	global	_timer1_pwm_config
                                           	global	_timer1_pwm_open
                                           	global	_timer1_pwm_close
                                           	global	_timer2_pwm_config
                                           	global	_key_config
                                           	global	_adc_config
                                           	global	_adc_sel_pin
                                           	global	_adc_get_val
                                           	global	_key_scan
                                           	global	_key_handle
                                           	global	_adc_scan_handle
                                           	global	_turn_dir_scan_handle
                                           	global	_shutdown_scan_handle
                                           	global	_low_power_scan_handle
                                           	global	_main
                                           	global	_int_isr
                                           	global	_mode_flag
                                           	global	_key_press_flag
                                           	global	_i
                                           	global	_adc_val
                                           	global	_turn_dir_ms_cnt
                                           	global	_shut_down_ms_cnt
                                           	global	_abuf
                                           	global	_statusbuf
                                           	global	_flag1
                                           	global	_charge_buf
                                           	global	_battery_refer_vol_buf
                                           
                                           	global STK06
                                           	global STK05
                                           	global STK04
                                           	global STK03
                                           	global STK02
                                           	global STK01
                                           	global STK00
                                           
                                           sharebank udata_ovr 0x0000
                                           STK06	res 1
                                           STK05	res 1
                                           STK04	res 1
                                           STK03	res 1
                                           STK02	res 1
                                           STK01	res 1
                                           STK00	res 1
                                           
                                           ;--------------------------------------------------------
                                           ; global definitions
                                           ;--------------------------------------------------------
                                           UD_MC32P7311_0	udata
                                           _mode_flag	res	1
                                           
                                           UD_MC32P7311_1	udata
                                           _key_press_flag	res	1
                                           
                                           UD_MC32P7311_2	udata
                                           _i	res	1
                                           
                                           UD_MC32P7311_3	udata
                                           _adc_val	res	2
                                           
                                           UD_MC32P7311_4	udata
                                           _turn_dir_ms_cnt	res	4
                                           
                                           UD_MC32P7311_5	udata
                                           _shut_down_ms_cnt	res	4
                                           
                                           UD_MC32P7311_6	udata
                                           _abuf	res	1
                                           
                                           UD_MC32P7311_7	udata
                                           _statusbuf	res	1
                                           
                                           UD_MC32P7311_8	udata
                                           _flag1	res	1
                                           
                                           ;--------------------------------------------------------
                                           ; absolute symbol definitions
                                           ;--------------------------------------------------------
                                           ;--------------------------------------------------------
                                           ; compiler-defined variables
                                           ;--------------------------------------------------------
                                           UDL_MC32P7311_0	udata
                                           r0x1011	res	1
                                           r0x1010	res	1
                                           r0x100F	res	1
                                           r0x100E	res	1
                                           r0x1012	res	1
                                           r0x1013	res	1
                                           r0x1014	res	1
                                           r0x1015	res	1
                                           r0x1016	res	1
                                           r0x1017	res	1
                                           r0x1018	res	1
                                           r0x1019	res	1
                                           r0x1022	res	1
                                           r0x1021	res	1
                                           r0x1020	res	1
                                           r0x101F	res	1
                                           r0x1023	res	1
                                           r0x1027	res	1
                                           r0x1026	res	1
                                           r0x1025	res	1
                                           r0x1024	res	1
                                           r0x101A	res	1
                                           r0x101B	res	1
                                           r0x101C	res	1
                                           r0x101D	res	1
                                           r0x101E	res	1
                                           r0x1028	res	1
                                           r0x1029	res	1
                                           ;--------------------------------------------------------
                                           ; initialized data
                                           ;--------------------------------------------------------
                                           
                                           ID_MC32P7311_0	code
                                           _charge_buf
                                           	dw 0x2b
                                           	dw 0x00
                                           
                                           
                                           ID_MC32P7311_1	code
                                           _battery_refer_vol_buf
                                           	dw 0x00
                                           
                                           
                                           ;@Allocation info for local variables in function 'delay_ms'
                                           ;@delay_ms Sys_Init                  Allocated to registers ;size:2
                                           ;@delay_ms CLR_RAM                   Allocated to registers ;size:2
                                           ;@delay_ms IO_Init                   Allocated to registers ;size:2
                                           ;@delay_ms delay_ms                  Allocated to registers ;size:2
                                           ;@delay_ms INDF0bits                 Allocated to registers ;size:1
                                           ;@delay_ms INDF1bits                 Allocated to registers ;size:1
                                           ;@delay_ms INDF2bits                 Allocated to registers ;size:1
                                           ;@delay_ms HIBYTEbits                Allocated to registers ;size:1
                                           ;@delay_ms FSR0bits                  Allocated to registers ;size:1
                                           ;@delay_ms FSR1bits                  Allocated to registers ;size:1
                                           ;@delay_ms PCLbits                   Allocated to registers ;size:1
                                           ;@delay_ms PFLAGbits                 Allocated to registers ;size:1
                                           ;@delay_ms MCRbits                   Allocated to registers ;size:1
                                           ;@delay_ms INDF3bits                 Allocated to registers ;size:1
                                           ;@delay_ms INTEbits                  Allocated to registers ;size:1
                                           ;@delay_ms INTFbits                  Allocated to registers ;size:1
                                           ;@delay_ms DRVCRbits                 Allocated to registers ;size:1
                                           ;@delay_ms KBCRbits                  Allocated to registers ;size:1
                                           ;@delay_ms IOP0bits                  Allocated to registers ;size:1
                                           ;@delay_ms OEP0bits                  Allocated to registers ;size:1
                                           ;@delay_ms PUP0bits                  Allocated to registers ;size:1
                                           ;@delay_ms PDP0bits                  Allocated to registers ;size:1
                                           ;@delay_ms IOP1bits                  Allocated to registers ;size:1
                                           ;@delay_ms OEP1bits                  Allocated to registers ;size:1
                                           ;@delay_ms PUP1bits                  Allocated to registers ;size:1
                                           ;@delay_ms PDP1bits                  Allocated to registers ;size:1
                                           ;@delay_ms T0CRbits                  Allocated to registers ;size:1
                                           ;@delay_ms T0CNTbits                 Allocated to registers ;size:1
                                           ;@delay_ms T0LOADbits                Allocated to registers ;size:1
                                           ;@delay_ms T0DATAbits                Allocated to registers ;size:1
                                           ;@delay_ms T1CRbits                  Allocated to registers ;size:1
                                           ;@delay_ms T1CNTbits                 Allocated to registers ;size:1
                                           ;@delay_ms T1LOADbits                Allocated to registers ;size:1
                                           ;@delay_ms T1DATAbits                Allocated to registers ;size:1
                                           ;@delay_ms T2CRbits                  Allocated to registers ;size:1
                                           ;@delay_ms T2CNTbits                 Allocated to registers ;size:1
                                           ;@delay_ms T2LOADbits                Allocated to registers ;size:1
                                           ;@delay_ms T2DATAbits                Allocated to registers ;size:1
                                           ;@delay_ms T3CRbits                  Allocated to registers ;size:1
                                           ;@delay_ms T3CNTbits                 Allocated to registers ;size:1
                                           ;@delay_ms T3LOADbits                Allocated to registers ;size:1
                                           ;@delay_ms PWM0DEbits                Allocated to registers ;size:1
                                           ;@delay_ms PWM1DEbits                Allocated to registers ;size:1
                                           ;@delay_ms PWM2DEbits                Allocated to registers ;size:1
                                           ;@delay_ms PWMCR0bits                Allocated to registers ;size:1
                                           ;@delay_ms PWMCR1bits                Allocated to registers ;size:1
                                           ;@delay_ms OSCMbits                  Allocated to registers ;size:1
                                           ;@delay_ms LVDCRbits                 Allocated to registers ;size:1
                                           ;@delay_ms ADCR0bits                 Allocated to registers ;size:1
                                           ;@delay_ms ADCR1bits                 Allocated to registers ;size:1
                                           ;@delay_ms ADCR2bits                 Allocated to registers ;size:1
                                           ;@delay_ms ADRHbits                  Allocated to registers ;size:1
                                           ;@delay_ms ADRLbits                  Allocated to registers ;size:1
                                           ;@delay_ms ANSEL0bits                Allocated to registers ;size:1
                                           ;@delay_ms ANSEL1bits                Allocated to registers ;size:1
                                           ;@delay_ms OSCCALHbits               Allocated to registers ;size:1
                                           ;@delay_ms OSCCALLbits               Allocated to registers ;size:1
                                           ;@delay_ms mode_flag                 Allocated to registers ;size:1
                                           ;@delay_ms key_press_flag            Allocated to registers ;size:1
                                           ;@delay_ms i                         Allocated to registers ;size:1
                                           ;@delay_ms adc_val                   Allocated to registers ;size:2
                                           ;@delay_ms turn_dir_ms_cnt           Allocated to registers ;size:4
                                           ;@delay_ms shut_down_ms_cnt          Allocated to registers ;size:4
                                           ;@delay_ms abuf                      Allocated to registers ;size:1
                                           ;@delay_ms statusbuf                 Allocated to registers ;size:1
                                           ;@delay_ms flag1                     Allocated to registers ;size:1
                                           ;@delay_ms xms                       Allocated to registers ;size:4
                                           ;@delay_ms i                         Allocated to registers r0x1012 r0x1013 r0x1014 r0x1015 ;size:4
                                           ;@delay_ms INDF0                     Allocated to registers ;size:1
                                           ;@delay_ms INDF1                     Allocated to registers ;size:1
                                           ;@delay_ms INDF2                     Allocated to registers ;size:1
                                           ;@delay_ms HIBYTE                    Allocated to registers ;size:1
                                           ;@delay_ms FSR0                      Allocated to registers ;size:1
                                           ;@delay_ms FSR1                      Allocated to registers ;size:1
                                           ;@delay_ms PCL                       Allocated to registers ;size:1
                                           ;@delay_ms PFLAG                     Allocated to registers ;size:1
                                           ;@delay_ms MCR                       Allocated to registers ;size:1
                                           ;@delay_ms INDF3                     Allocated to registers ;size:1
                                           ;@delay_ms INTE                      Allocated to registers ;size:1
                                           ;@delay_ms INTF                      Allocated to registers ;size:1
                                           ;@delay_ms DRVCR                     Allocated to registers ;size:1
                                           ;@delay_ms KBCR                      Allocated to registers ;size:1
                                           ;@delay_ms IOP0                      Allocated to registers ;size:1
                                           ;@delay_ms OEP0                      Allocated to registers ;size:1
                                           ;@delay_ms PUP0                      Allocated to registers ;size:1
                                           ;@delay_ms PDP0                      Allocated to registers ;size:1
                                           ;@delay_ms IOP1                      Allocated to registers ;size:1
                                           ;@delay_ms OEP1                      Allocated to registers ;size:1
                                           ;@delay_ms PUP1                      Allocated to registers ;size:1
                                           ;@delay_ms PDP1                      Allocated to registers ;size:1
                                           ;@delay_ms T0CR                      Allocated to registers ;size:1
                                           ;@delay_ms T0CNT                     Allocated to registers ;size:1
                                           ;@delay_ms T0LOAD                    Allocated to registers ;size:1
                                           ;@delay_ms T0DATA                    Allocated to registers ;size:1
                                           ;@delay_ms T1CR                      Allocated to registers ;size:1
                                           ;@delay_ms T1CNT                     Allocated to registers ;size:1
                                           ;@delay_ms T1LOAD                    Allocated to registers ;size:1
                                           ;@delay_ms T1DATA                    Allocated to registers ;size:1
                                           ;@delay_ms T2CR                      Allocated to registers ;size:1
                                           ;@delay_ms T2CNT                     Allocated to registers ;size:1
                                           ;@delay_ms T2LOAD                    Allocated to registers ;size:1
                                           ;@delay_ms T2DATA                    Allocated to registers ;size:1
                                           ;@delay_ms T3CR                      Allocated to registers ;size:1
                                           ;@delay_ms T3CNT                     Allocated to registers ;size:1
                                           ;@delay_ms T3LOAD                    Allocated to registers ;size:1
                                           ;@delay_ms PWM0DE                    Allocated to registers ;size:1
                                           ;@delay_ms PWM1DE                    Allocated to registers ;size:1
                                           ;@delay_ms PWM2DE                    Allocated to registers ;size:1
                                           ;@delay_ms PWMCR0                    Allocated to registers ;size:1
                                           ;@delay_ms PWMCR1                    Allocated to registers ;size:1
                                           ;@delay_ms OSCM                      Allocated to registers ;size:1
                                           ;@delay_ms LVDCR                     Allocated to registers ;size:1
                                           ;@delay_ms ADCR0                     Allocated to registers ;size:1
                                           ;@delay_ms ADCR1                     Allocated to registers ;size:1
                                           ;@delay_ms ADCR2                     Allocated to registers ;size:1
                                           ;@delay_ms ADRH                      Allocated to registers ;size:1
                                           ;@delay_ms ADRL                      Allocated to registers ;size:1
                                           ;@delay_ms ANSEL0                    Allocated to registers ;size:1
                                           ;@delay_ms ANSEL1                    Allocated to registers ;size:1
                                           ;@delay_ms OSCCALH                   Allocated to registers ;size:1
                                           ;@delay_ms OSCCALL                   Allocated to registers ;size:1
                                           ;@end Allocation info for local variables in function 'delay_ms';
                                           ;@Allocation info for local variables in function 'send_32bits_data_by_irsir'
                                           ;@send_32bits_data_by_irsir send_data                 Allocated to registers r0x1022 r0x1021 r0x1020 r0x101F ;size:4
                                           ;@send_32bits_data_by_irsir i                         Allocated to registers r0x1023 ;size:1
                                           ;@end Allocation info for local variables in function 'send_32bits_data_by_irsir';
                                           ;@Allocation info for local variables in function 'CLR_RAM'
                                           ;@end Allocation info for local variables in function 'CLR_RAM';
                                           ;@Allocation info for local variables in function 'IO_Init'
                                           ;@end Allocation info for local variables in function 'IO_Init';
                                           ;@Allocation info for local variables in function 'timer0_pwm_config'
                                           ;@end Allocation info for local variables in function 'timer0_pwm_config';
                                           ;@Allocation info for local variables in function 'timer1_pwm_config'
                                           ;@end Allocation info for local variables in function 'timer1_pwm_config';
                                           ;@Allocation info for local variables in function 'timer1_pwm_open'
                                           ;@end Allocation info for local variables in function 'timer1_pwm_open';
                                           ;@Allocation info for local variables in function 'timer1_pwm_close'
                                           ;@end Allocation info for local variables in function 'timer1_pwm_close';
                                           ;@Allocation info for local variables in function 'timer2_pwm_config'
                                           ;@end Allocation info for local variables in function 'timer2_pwm_config';
                                           ;@Allocation info for local variables in function 'key_config'
                                           ;@end Allocation info for local variables in function 'key_config';
                                           ;@Allocation info for local variables in function 'adc_config'
                                           ;@end Allocation info for local variables in function 'adc_config';
                                           ;@Allocation info for local variables in function 'adc_sel_pin'
                                           ;@adc_sel_pin adc_pin                   Allocated to registers r0x101A ;size:1
                                           ;@end Allocation info for local variables in function 'adc_sel_pin';
                                           ;@Allocation info for local variables in function 'adc_get_val'
                                           ;@adc_get_val cnt                       Allocated to registers r0x1014 ;size:1
                                           ;@adc_get_val g_temp_value              Allocated to registers r0x1015 r0x1016 ;size:2
                                           ;@adc_get_val g_tmpbuff                 Allocated to registers r0x1010 r0x1011 ;size:2
                                           ;@adc_get_val g_adcmax                  Allocated to registers r0x1010 r0x1011 ;size:2
                                           ;@adc_get_val g_adcmin                  Allocated to registers r0x1012 r0x1013 ;size:2
                                           ;@end Allocation info for local variables in function 'adc_get_val';
                                           ;@Allocation info for local variables in function 'Sys_Init'
                                           ;@end Allocation info for local variables in function 'Sys_Init';
                                           ;@Allocation info for local variables in function 'key_scan'
                                           ;@key_scan cnt                       Allocated to registers r0x101A ;size:1
                                           ;@end Allocation info for local variables in function 'key_scan';
                                           ;@Allocation info for local variables in function 'key_handle'
                                           ;@end Allocation info for local variables in function 'key_handle';
                                           ;@Allocation info for local variables in function 'adc_scan_handle'
                                           ;@adc_scan_handle cnt                       Allocated to registers r0x101B ;size:1
                                           ;@adc_scan_handle need_charge_cnt           Allocated to registers r0x101E ;size:1
                                           ;@adc_scan_handle need_charge_slow_cnt      Allocated to registers r0x101D ;size:1
                                           ;@adc_scan_handle flag_bat_is_empty         Allocated to registers r0x101C ;size:1
                                           ;@end Allocation info for local variables in function 'adc_scan_handle';
                                           ;@Allocation info for local variables in function 'turn_dir_scan_handle'
                                           ;@end Allocation info for local variables in function 'turn_dir_scan_handle';
                                           ;@Allocation info for local variables in function 'shutdown_scan_handle'
                                           ;@end Allocation info for local variables in function 'shutdown_scan_handle';
                                           ;@Allocation info for local variables in function 'low_power_scan_handle'
                                           ;@end Allocation info for local variables in function 'low_power_scan_handle';
                                           ;@Allocation info for local variables in function 'main'
                                           ;@end Allocation info for local variables in function 'main';
                                           ;@Allocation info for local variables in function 'int_isr'
                                           ;@end Allocation info for local variables in function 'int_isr';
                                           
                                           ;--------------------------------------------------------
                                           ; overlayable items in internal ram 
                                           ;--------------------------------------------------------
                                           ;	udata_ovr
                                           ;--------------------------------------------------------
                                           ; reset vector 
                                           ;--------------------------------------------------------
                                           STARTUP	code 0x0000
                                           	goto	_main
                                           ;--------------------------------------------------------
                                           ; interrupt and initialization code
                                           ;--------------------------------------------------------
                                           c_interrupt	code	0x8
                                           __sdcc_interrupt
                                           ;***
                                           ;  pBlock Stats: dbName = I
                                           ;***
                                           ;entry:  _int_isr	;Function start
                                           ; 0 exit points
                                           ;2 compiler assigned registers:
                                           ;   r0x1028
                                           ;   r0x1029
                                           ;; Starting pCode block
                                           _int_isr	;Function start
                                           ; 0 exit points
                                           ;	.line	799; "MC32P7311.c"	__endasm;
                                           	;
                                           	movra	_abuf;
                                           	swapar	_PFLAG;
                                           	movra	_statusbuf;
                                           	
                                           ;	.line	832; "MC32P7311.c"	if (INT0IF & INT0IE)
                                           	CLRR	r0x1028
                                           	JBCLR	_INTFbits,2
                                           	INCR	r0x1028
                                           	CLRR	r0x1029
                                           	JBCLR	_INTEbits,2
                                           	INCR	r0x1029
                                           	MOVAR	r0x1029
                                           	ANDRA	r0x1028
                                           	MOVAI	0x00
                                           	ORAR	r0x1028
                                           	JBCLR	PFLAG,2
                                           	GOTO	_00680_DS_
                                           ;	.line	834; "MC32P7311.c"	INT0IF = 0;
                                           	BCLR	_INTFbits,2
                                           _00680_DS_
                                           ;	.line	846; "MC32P7311.c"	__endasm;
                                           	;
                                           	swapar	_statusbuf;
                                           	movra	_PFLAG;
                                           	swapr	_abuf;
                                           	swapar	_abuf;
                                           	
                                           END_OF_INTERRUPT
                                           ;	.line	847; "MC32P7311.c"	}
                                           	RETIE	
                                           
                                           ;--------------------------------------------------------
                                           ; code
                                           ;--------------------------------------------------------
                                           code_MC32P7311	code
                                           ;***
                                           ;  pBlock Stats: dbName = M
                                           ;***
                                           ;entry:  _main	;Function start
                                           ; 2 exit points
                                           ;has an exit
                                           ;functions called:
                                           ;   _Sys_Init
                                           ;   _key_scan
                                           ;   _key_handle
                                           ;   _adc_scan_handle
                                           ;   _turn_dir_scan_handle
                                           ;   _shutdown_scan_handle
                                           ;   _low_power_scan_handle
                                           ;   _Sys_Init
                                           ;   _key_scan
                                           ;   _key_handle
                                           ;   _adc_scan_handle
                                           ;   _turn_dir_scan_handle
                                           ;   _shutdown_scan_handle
                                           ;   _low_power_scan_handle
                                           ;; Starting pCode block
                                           _main	;Function start
                                           ; 2 exit points
                                           ;	.line	763; "MC32P7311.c"	Sys_Init();
                                           	CALL	_Sys_Init
                                           ;	.line	765; "MC32P7311.c"	LED_WORKING_OFF();
                                           	BSET	_IOP1bits,4
                                           ;	.line	766; "MC32P7311.c"	LED_FULL_CHARGE_OFF();
                                           	BSET	_IOP0bits,3
                                           ;	.line	767; "MC32P7311.c"	LED_CHARGING_OFF();
                                           	BSET	_IOP0bits,4
                                           _00674_DS_
                                           ;	.line	772; "MC32P7311.c"	P10D = 1; // 测试一次循环所需的时间
                                           	BSET	_IOP1bits,0
                                           ;	.line	775; "MC32P7311.c"	key_scan();
                                           	CALL	_key_scan
                                           ;	.line	776; "MC32P7311.c"	key_handle();
                                           	CALL	_key_handle
                                           ;	.line	777; "MC32P7311.c"	adc_scan_handle(); // 充电扫描和处理函数
                                           	CALL	_adc_scan_handle
                                           ;	.line	779; "MC32P7311.c"	turn_dir_scan_handle();
                                           	CALL	_turn_dir_scan_handle
                                           ;	.line	780; "MC32P7311.c"	shutdown_scan_handle(); // 自动关机检测和处理函数
                                           	CALL	_shutdown_scan_handle
                                           ;	.line	781; "MC32P7311.c"	low_power_scan_handle();
                                           	CALL	_low_power_scan_handle
                                           ;	.line	784; "MC32P7311.c"	P10D = 0; // 测试一次循环所需的时间
                                           	BCLR	_IOP1bits,0
                                           ;	.line	789; "MC32P7311.c"	__endasm;
                                           	;
                                           	CLRWDT;
                                           	
                                           	GOTO	_00674_DS_
                                           ;	.line	791; "MC32P7311.c"	}
                                           	RETURN	
                                           ; exit point of _main
                                           
                                           ;***
                                           ;  pBlock Stats: dbName = C
                                           ;***
                                           ;entry:  _low_power_scan_handle	;Function start
                                           ; 2 exit points
                                           ;has an exit
                                           ;; Starting pCode block
                                           _low_power_scan_handle	;Function start
                                           ; 2 exit points
                                           ;	.line	732; "MC32P7311.c"	if (FLAG_IS_DEVICE_OPEN)
                                           	JBSET	_flag1,0
                                           	GOTO	_00656_DS_
                                           ;	.line	735; "MC32P7311.c"	return;
                                           	GOTO	_00659_DS_
                                           _00656_DS_
                                           ;	.line	740; "MC32P7311.c"	if (FLAG_IS_IN_CHARGING)
                                           	JBSET	_flag1,2
                                           	GOTO	_00658_DS_
                                           ;	.line	743; "MC32P7311.c"	return;
                                           	GOTO	_00659_DS_
                                           _00658_DS_
                                           ;	.line	746; "MC32P7311.c"	GIE = 0;
                                           	BCLR	_MCRbits,7
                                           ;	.line	747; "MC32P7311.c"	KBIF = 0;
                                           	BCLR	_INTFbits,4
                                           ;	.line	748; "MC32P7311.c"	KBIE = 1;
                                           	BSET	_INTEbits,4
                                           ;	.line	750; "MC32P7311.c"	Nop();
                                           	nop	
                                           ;	.line	751; "MC32P7311.c"	Nop();
                                           	nop	
                                           ;	.line	752; "MC32P7311.c"	Stop();
                                           	stop	
                                           ;	.line	753; "MC32P7311.c"	Nop();
                                           	nop	
                                           ;	.line	754; "MC32P7311.c"	Nop();
                                           	nop	
                                           ;	.line	755; "MC32P7311.c"	KBIE = 0;
                                           	BCLR	_INTEbits,4
                                           ;	.line	756; "MC32P7311.c"	KBIF = 0;
                                           	BCLR	_INTFbits,4
                                           ;	.line	757; "MC32P7311.c"	GIE = 1;
                                           	BSET	_MCRbits,7
                                           _00659_DS_
                                           ;	.line	759; "MC32P7311.c"	}
                                           	RETURN	
                                           ; exit point of _low_power_scan_handle
                                           
                                           ;***
                                           ;  pBlock Stats: dbName = C
                                           ;***
                                           ;entry:  _shutdown_scan_handle	;Function start
                                           ; 2 exit points
                                           ;has an exit
                                           ;; Starting pCode block
                                           _shutdown_scan_handle	;Function start
                                           ; 2 exit points
                                           ;	.line	704; "MC32P7311.c"	if (FLAG_IS_DEVICE_OPEN)
                                           	JBSET	_flag1,0
                                           	GOTO	_00638_DS_
                                           ;	.line	707; "MC32P7311.c"	shut_down_ms_cnt += ONE_CYCLE_TIME_MS;
                                           	MOVAI	0x50
                                           	ADDRA	_shut_down_ms_cnt
                                           	JBCLR	PFLAG,0
                                           	INCR	(_shut_down_ms_cnt + 1)
                                           	JBCLR	PFLAG,2
                                           	INCR	(_shut_down_ms_cnt + 2)
                                           	JBCLR	PFLAG,2
                                           	INCR	(_shut_down_ms_cnt + 3)
                                           ;;unsigned compare: left < lit(0xDBBA0=900000), size=4
                                           ;	.line	708; "MC32P7311.c"	if (shut_down_ms_cnt >= 900000)
                                           	MOVAI	0x00
                                           	RSUBAR	(_shut_down_ms_cnt + 3)
                                           	JBSET	PFLAG,2
                                           	GOTO	_00650_DS_
                                           	MOVAI	0x0d
                                           	RSUBAR	(_shut_down_ms_cnt + 2)
                                           	JBSET	PFLAG,2
                                           	GOTO	_00650_DS_
                                           	MOVAI	0xbb
                                           	RSUBAR	(_shut_down_ms_cnt + 1)
                                           	JBSET	PFLAG,2
                                           	GOTO	_00650_DS_
                                           	MOVAI	0xa0
                                           	RSUBAR	_shut_down_ms_cnt
                                           _00650_DS_
                                           	JBSET	PFLAG,0
                                           	GOTO	_00640_DS_
                                           ;;genSkipc:3291: created from rifx:013B5EFC
                                           ;	.line	712; "MC32P7311.c"	LED_WORKING_OFF(); // 关闭电源指示灯
                                           	BSET	_IOP1bits,4
                                           ;	.line	713; "MC32P7311.c"	HEATING_OFF();	   // 关闭加热
                                           	BCLR	_IOP1bits,2
                                           ;	.line	714; "MC32P7311.c"	FLAG_IS_HEATING = 0;
                                           	BCLR	_flag1,1
                                           ;	.line	715; "MC32P7311.c"	mode_flag = MODE_3; // 下一次切换模式时，会变成 MODE_1
                                           	MOVAI	0x02
                                           	MOVRA	_mode_flag
                                           ;	.line	717; "MC32P7311.c"	PWM0OE = 0;
                                           	BCLR	_T0CRbits,6
                                           ;	.line	718; "MC32P7311.c"	PWM1OE = 0;
                                           	BCLR	_T1CRbits,6
                                           ;	.line	720; "MC32P7311.c"	FLAG_IS_DEVICE_OPEN = 0;
                                           	BCLR	_flag1,0
                                           	GOTO	_00640_DS_
                                           _00638_DS_
                                           ;	.line	726; "MC32P7311.c"	shut_down_ms_cnt = 0;
                                           	CLRR	_shut_down_ms_cnt
                                           	CLRR	(_shut_down_ms_cnt + 1)
                                           	CLRR	(_shut_down_ms_cnt + 2)
                                           	CLRR	(_shut_down_ms_cnt + 3)
                                           _00640_DS_
                                           ;	.line	728; "MC32P7311.c"	}
                                           	RETURN	
                                           ; exit point of _shutdown_scan_handle
                                           
                                           ;***
                                           ;  pBlock Stats: dbName = C
                                           ;***
                                           ;entry:  _turn_dir_scan_handle	;Function start
                                           ; 2 exit points
                                           ;has an exit
                                           ;; Starting pCode block
                                           _turn_dir_scan_handle	;Function start
                                           ; 2 exit points
                                           ;	.line	668; "MC32P7311.c"	if (FLAG_IS_DEVICE_OPEN)
                                           	JBSET	_flag1,0
                                           	GOTO	_00608_DS_
                                           ;	.line	671; "MC32P7311.c"	turn_dir_ms_cnt += ONE_CYCLE_TIME_MS;
                                           	MOVAI	0x50
                                           	ADDRA	_turn_dir_ms_cnt
                                           	JBCLR	PFLAG,0
                                           	INCR	(_turn_dir_ms_cnt + 1)
                                           	JBCLR	PFLAG,2
                                           	INCR	(_turn_dir_ms_cnt + 2)
                                           	JBCLR	PFLAG,2
                                           	INCR	(_turn_dir_ms_cnt + 3)
                                           ;;unsigned compare: left < lit(0x1D4C0=120000), size=4
                                           ;	.line	672; "MC32P7311.c"	if (turn_dir_ms_cnt >= 120000)
                                           	MOVAI	0x00
                                           	RSUBAR	(_turn_dir_ms_cnt + 3)
                                           	JBSET	PFLAG,2
                                           	GOTO	_00624_DS_
                                           	MOVAI	0x01
                                           	RSUBAR	(_turn_dir_ms_cnt + 2)
                                           	JBSET	PFLAG,2
                                           	GOTO	_00624_DS_
                                           	MOVAI	0xd4
                                           	RSUBAR	(_turn_dir_ms_cnt + 1)
                                           	JBSET	PFLAG,2
                                           	GOTO	_00624_DS_
                                           	MOVAI	0xc0
                                           	RSUBAR	_turn_dir_ms_cnt
                                           _00624_DS_
                                           	JBSET	PFLAG,0
                                           	GOTO	_00610_DS_
                                           ;;genSkipc:3291: created from rifx:013B5EFC
                                           ;	.line	675; "MC32P7311.c"	if (0 == FLAG_DIR)
                                           	JBCLR	_flag1,3
                                           	GOTO	_00603_DS_
                                           ;	.line	678; "MC32P7311.c"	PWM0OE = 0; // 关闭驱动正转的pwm
                                           	BCLR	_T0CRbits,6
                                           ;	.line	679; "MC32P7311.c"	PWM1OE = 1; // 打开驱动反转的pwm
                                           	BSET	_T1CRbits,6
                                           ;	.line	681; "MC32P7311.c"	FLAG_DIR = 1; // 表示当前为反转
                                           	BSET	_flag1,3
                                           	GOTO	_00604_DS_
                                           _00603_DS_
                                           ;	.line	686; "MC32P7311.c"	PWM1OE = 0; // 关闭驱动反转的pwm
                                           	BCLR	_T1CRbits,6
                                           ;	.line	687; "MC32P7311.c"	PWM0OE = 1; // 打开驱动正转的pwm
                                           	BSET	_T0CRbits,6
                                           ;	.line	689; "MC32P7311.c"	FLAG_DIR = 0; // 表示当前为正转
                                           	BCLR	_flag1,3
                                           _00604_DS_
                                           ;	.line	692; "MC32P7311.c"	turn_dir_ms_cnt = 0;
                                           	CLRR	_turn_dir_ms_cnt
                                           	CLRR	(_turn_dir_ms_cnt + 1)
                                           	CLRR	(_turn_dir_ms_cnt + 2)
                                           	CLRR	(_turn_dir_ms_cnt + 3)
                                           	GOTO	_00610_DS_
                                           _00608_DS_
                                           ;	.line	697; "MC32P7311.c"	turn_dir_ms_cnt = 0; // 设备未运行时，清空计数值
                                           	CLRR	_turn_dir_ms_cnt
                                           	CLRR	(_turn_dir_ms_cnt + 1)
                                           	CLRR	(_turn_dir_ms_cnt + 2)
                                           	CLRR	(_turn_dir_ms_cnt + 3)
                                           _00610_DS_
                                           ;	.line	699; "MC32P7311.c"	}
                                           	RETURN	
                                           ; exit point of _turn_dir_scan_handle
                                           
                                           ;***
                                           ;  pBlock Stats: dbName = C
                                           ;***
                                           ;entry:  _adc_scan_handle	;Function start
                                           ; 2 exit points
                                           ;has an exit
                                           ;functions called:
                                           ;   _adc_sel_pin
                                           ;   _adc_get_val
                                           ;   _adc_sel_pin
                                           ;   _adc_get_val
                                           ;   _adc_sel_pin
                                           ;   _adc_get_val
                                           ;   _adc_sel_pin
                                           ;   _adc_get_val
                                           ;5 compiler assigned registers:
                                           ;   r0x101B
                                           ;   r0x101C
                                           ;   r0x101D
                                           ;   r0x101E
                                           ;   STK00
                                           ;; Starting pCode block
                                           _adc_scan_handle	;Function start
                                           ; 2 exit points
                                           ;	.line	527; "MC32P7311.c"	u8 cnt = 0;					 // 计数值，用于检测电池是否满电，也是用于检测是否插入/拔出充电器的计数值
                                           	CLRR	r0x101B
                                           ;	.line	530; "MC32P7311.c"	u8 flag_bat_is_empty = 0;	 // 标志位，用于检测是否拔出了电池
                                           	CLRR	r0x101C
                                           ;	.line	532; "MC32P7311.c"	adc_sel_pin(ADC_PIN_P02_AN1); // 切换到检测电池降压后的电压的检测引脚
                                           	MOVAI	0x02
                                           	CALL	_adc_sel_pin
                                           ;	.line	533; "MC32P7311.c"	for (i = 0; i < 10; i++)
                                           	CLRR	_i
                                           	CLRR	r0x101D
                                           	CLRR	r0x101E
                                           ;;unsigned compare: left < lit(0xA=10), size=1
                                           _00462_DS_
                                           	MOVAI	0x0a
                                           	RSUBAR	_i
                                           	JBCLR	PFLAG,0
                                           	GOTO	_00431_DS_
                                           ;;genSkipc:3291: created from rifx:013B5EFC
                                           ;	.line	535; "MC32P7311.c"	adc_val = adc_get_val();
                                           	CALL	_adc_get_val
                                           	MOVRA	(_adc_val + 1)
                                           	MOVAR	STK00
                                           	MOVRA	_adc_val
                                           ;	.line	536; "MC32P7311.c"	if (FLAG_IS_IN_CHARGING)
                                           	JBSET	_flag1,2
                                           	GOTO	_00429_DS_
                                           ;;swapping arguments (AOP_TYPEs 1/3)
                                           ;;unsigned compare: left >= lit(0x47C=1148), size=2
                                           ;	.line	539; "MC32P7311.c"	if (adc_val <= ADCDETECT_BAT_EMPTY) // 如果有一次电池一侧的电压小于5V，认为是拔出了电池
                                           	MOVAI	0x04
                                           	RSUBAR	(_adc_val + 1)
                                           	JBSET	PFLAG,2
                                           	GOTO	_00585_DS_
                                           	MOVAI	0x7c
                                           	RSUBAR	_adc_val
                                           _00585_DS_
                                           	JBCLR	PFLAG,0
                                           	GOTO	_00393_DS_
                                           ;;genSkipc:3291: created from rifx:013B5EFC
                                           ;	.line	541; "MC32P7311.c"	flag_bat_is_empty = 1;
                                           	MOVAI	0x01
                                           	MOVRA	r0x101C
                                           	GOTO	_00394_DS_
                                           ;;unsigned compare: left < lit(0x63B=1595), size=2
                                           _00393_DS_
                                           ;	.line	543; "MC32P7311.c"	else if (adc_val >= ADCDETECT_BAT_FULL) // 检测电池是否满电
                                           	MOVAI	0x06
                                           	RSUBAR	(_adc_val + 1)
                                           	JBSET	PFLAG,2
                                           	GOTO	_00586_DS_
                                           	MOVAI	0x3b
                                           	RSUBAR	_adc_val
                                           _00586_DS_
                                           	JBSET	PFLAG,0
                                           	GOTO	_00390_DS_
                                           ;;genSkipc:3291: created from rifx:013B5EFC
                                           ;	.line	545; "MC32P7311.c"	cnt++;
                                           	INCR	r0x101B
                                           	GOTO	_00394_DS_
                                           ;;unsigned compare: left < lit(0x5DD=1501), size=2
                                           _00390_DS_
                                           ;	.line	547; "MC32P7311.c"	else if (adc_val < ADCDETECT_BAT_WILL_FULL) // 检测是否要快速充电
                                           	MOVAI	0x05
                                           	RSUBAR	(_adc_val + 1)
                                           	JBSET	PFLAG,2
                                           	GOTO	_00587_DS_
                                           	MOVAI	0xdd
                                           	RSUBAR	_adc_val
                                           _00587_DS_
                                           	JBCLR	PFLAG,0
                                           	GOTO	_00387_DS_
                                           ;;genSkipc:3291: created from rifx:013B5EFC
                                           ;	.line	549; "MC32P7311.c"	need_charge_cnt++;
                                           	INCR	r0x101E
                                           	GOTO	_00394_DS_
                                           ;;unsigned compare: left < lit(0x5DD=1501), size=2
                                           _00387_DS_
                                           ;	.line	551; "MC32P7311.c"	else if (adc_val >= ADCDETECT_BAT_WILL_FULL) // 检测是否要稍微降低充电速度
                                           	MOVAI	0x05
                                           	RSUBAR	(_adc_val + 1)
                                           	JBSET	PFLAG,2
                                           	GOTO	_00588_DS_
                                           	MOVAI	0xdd
                                           	RSUBAR	_adc_val
                                           _00588_DS_
                                           	JBSET	PFLAG,0
                                           	GOTO	_00394_DS_
                                           ;;genSkipc:3291: created from rifx:013B5EFC
                                           ;	.line	553; "MC32P7311.c"	need_charge_slow_cnt++;
                                           	INCR	r0x101D
                                           _00394_DS_
                                           ;	.line	556; "MC32P7311.c"	if (flag_bat_is_empty)
                                           	MOVAI	0x00
                                           	ORAR	r0x101C
                                           	JBCLR	PFLAG,2
                                           	GOTO	_00422_DS_
                                           ;	.line	559; "MC32P7311.c"	LED_FULL_CHARGE_ON(); // 开启电池充满电的指示灯
                                           	BCLR	_IOP0bits,3
                                           ;	.line	560; "MC32P7311.c"	LED_CHARGING_OFF();	  // 关闭充电指示灯
                                           	BSET	_IOP0bits,4
                                           ;	.line	561; "MC32P7311.c"	PWM2OE = 0;			  // 关闭控制升压电路的pwm
                                           	BCLR	_T2CRbits,6
                                           ;	.line	562; "MC32P7311.c"	FLAG_BAT_IS_NEED_CHARGE = 0;
                                           	BCLR	_flag1,4
                                           ;	.line	563; "MC32P7311.c"	break;
                                           	GOTO	_00431_DS_
                                           ;;unsigned compare: left < lit(0x8=8), size=1
                                           _00422_DS_
                                           ;	.line	565; "MC32P7311.c"	else if (cnt >= 8)
                                           	MOVAI	0x08
                                           	RSUBAR	r0x101B
                                           	JBSET	PFLAG,0
                                           	GOTO	_00419_DS_
                                           ;;genSkipc:3291: created from rifx:013B5EFC
                                           ;	.line	568; "MC32P7311.c"	LED_FULL_CHARGE_ON(); // 开启电池充满电的指示灯
                                           	BCLR	_IOP0bits,3
                                           ;	.line	569; "MC32P7311.c"	LED_CHARGING_OFF();	  // 关闭充电指示灯
                                           	BSET	_IOP0bits,4
                                           ;	.line	570; "MC32P7311.c"	PWM2OE = 0;			  // 关闭控制升压电路的pwm
                                           	BCLR	_T2CRbits,6
                                           ;	.line	572; "MC32P7311.c"	FLAG_BAT_IS_NEED_CHARGE = 0;
                                           	BCLR	_flag1,4
                                           ;	.line	574; "MC32P7311.c"	break;
                                           	GOTO	_00431_DS_
                                           ;;unsigned compare: left < lit(0x8=8), size=1
                                           _00419_DS_
                                           ;	.line	576; "MC32P7311.c"	else if (need_charge_cnt >= 8)
                                           	MOVAI	0x08
                                           	RSUBAR	r0x101E
                                           	JBSET	PFLAG,0
                                           	GOTO	_00416_DS_
                                           ;;genSkipc:3291: created from rifx:013B5EFC
                                           ;	.line	579; "MC32P7311.c"	T2DATA = 23;		   // 占空比 == TxDATA / TxLOAD   实际测得是46.15%占空比
                                           	MOVAI	0x17
                                           	MOVRA	_T2DATA
                                           ;	.line	580; "MC32P7311.c"	LED_FULL_CHARGE_OFF(); // 关闭充满电的指示灯
                                           	BSET	_IOP0bits,3
                                           ;	.line	581; "MC32P7311.c"	FLAG_BAT_IS_NEED_CHARGE = 1;
                                           	BSET	_flag1,4
                                           ;	.line	582; "MC32P7311.c"	break;
                                           	GOTO	_00431_DS_
                                           ;;unsigned compare: left < lit(0x8=8), size=1
                                           _00416_DS_
                                           ;	.line	584; "MC32P7311.c"	else if (need_charge_slow_cnt >= 8)
                                           	MOVAI	0x08
                                           	RSUBAR	r0x101D
                                           	JBSET	PFLAG,0
                                           	GOTO	_00463_DS_
                                           ;;genSkipc:3291: created from rifx:013B5EFC
                                           ;	.line	587; "MC32P7311.c"	T2DATA = 22;		   // 占空比 == TxDATA / TxLOAD   实际测得是41.54%、43%或44.62 这两个占空比
                                           	MOVAI	0x16
                                           	MOVRA	_T2DATA
                                           ;	.line	588; "MC32P7311.c"	LED_FULL_CHARGE_OFF(); // 关闭充满电的指示灯
                                           	BSET	_IOP0bits,3
                                           ;	.line	589; "MC32P7311.c"	FLAG_BAT_IS_NEED_CHARGE = 1;
                                           	BSET	_flag1,4
                                           ;	.line	590; "MC32P7311.c"	break;
                                           	GOTO	_00431_DS_
                                           ;;swapping arguments (AOP_TYPEs 1/3)
                                           ;;unsigned compare: left >= lit(0x5BA=1466), size=2
                                           _00429_DS_
                                           ;	.line	595; "MC32P7311.c"	if (adc_val <= ADCDETECT_BAT_FULL - 130)
                                           	MOVAI	0x05
                                           	RSUBAR	(_adc_val + 1)
                                           	JBSET	PFLAG,2
                                           	GOTO	_00592_DS_
                                           	MOVAI	0xba
                                           	RSUBAR	_adc_val
                                           _00592_DS_
                                           	JBCLR	PFLAG,0
                                           	GOTO	_00425_DS_
                                           ;;genSkipc:3291: created from rifx:013B5EFC
                                           ;	.line	597; "MC32P7311.c"	cnt++;
                                           	INCR	r0x101B
                                           ;;unsigned compare: left < lit(0x8=8), size=1
                                           _00425_DS_
                                           ;	.line	600; "MC32P7311.c"	if (cnt >= 8)
                                           	MOVAI	0x08
                                           	RSUBAR	r0x101B
                                           	JBSET	PFLAG,0
                                           	GOTO	_00463_DS_
                                           ;;genSkipc:3291: created from rifx:013B5EFC
                                           ;	.line	603; "MC32P7311.c"	FLAG_BAT_IS_NEED_CHARGE = 1;
                                           	BSET	_flag1,4
                                           ;	.line	604; "MC32P7311.c"	break;
                                           	GOTO	_00431_DS_
                                           _00463_DS_
                                           ;	.line	533; "MC32P7311.c"	for (i = 0; i < 10; i++)
                                           	INCR	_i
                                           	GOTO	_00462_DS_
                                           _00431_DS_
                                           ;	.line	609; "MC32P7311.c"	cnt = 0;
                                           	CLRR	r0x101B
                                           ;	.line	610; "MC32P7311.c"	adc_sel_pin(ADC_PIN_P00_AN0); // 切换到检测充电的电压检测引脚
                                           	MOVAI	0x01
                                           	CALL	_adc_sel_pin
                                           ;	.line	611; "MC32P7311.c"	for (i = 0; i < 10; i++)
                                           	CLRR	_i
                                           ;;unsigned compare: left < lit(0xA=10), size=1
                                           _00465_DS_
                                           	MOVAI	0x0a
                                           	RSUBAR	_i
                                           	JBCLR	PFLAG,0
                                           	GOTO	_00467_DS_
                                           ;;genSkipc:3291: created from rifx:013B5EFC
                                           ;	.line	613; "MC32P7311.c"	adc_val = adc_get_val();
                                           	CALL	_adc_get_val
                                           	MOVRA	(_adc_val + 1)
                                           	MOVAR	STK00
                                           	MOVRA	_adc_val
                                           ;	.line	614; "MC32P7311.c"	if (FLAG_IS_IN_CHARGING)
                                           	JBSET	_flag1,2
                                           	GOTO	_00458_DS_
                                           ;;unsigned compare: left < lit(0x800=2048), size=2
                                           ;	.line	617; "MC32P7311.c"	if (adc_val < ADCDETECT_CHARING_THRESHOLD)
                                           	MOVAI	0x08
                                           	RSUBAR	(_adc_val + 1)
                                           	JBSET	PFLAG,2
                                           	GOTO	_00595_DS_
                                           	MOVAI	0x00
                                           	RSUBAR	_adc_val
                                           _00595_DS_
                                           	JBCLR	PFLAG,0
                                           	GOTO	_00433_DS_
                                           ;;genSkipc:3291: created from rifx:013B5EFC
                                           ;	.line	619; "MC32P7311.c"	cnt++;
                                           	INCR	r0x101B
                                           ;;unsigned compare: left < lit(0x8=8), size=1
                                           _00433_DS_
                                           ;	.line	622; "MC32P7311.c"	if (cnt >= 8)
                                           	MOVAI	0x08
                                           	RSUBAR	r0x101B
                                           	JBSET	PFLAG,0
                                           	GOTO	_00441_DS_
                                           ;;genSkipc:3291: created from rifx:013B5EFC
                                           ;	.line	625; "MC32P7311.c"	LED_CHARGING_OFF();	   // 关闭充电指示灯
                                           	BSET	_IOP0bits,4
                                           ;	.line	626; "MC32P7311.c"	PWM2OE = 0;			   // 关闭控制升压电路的pwm
                                           	BCLR	_T2CRbits,6
                                           ;	.line	627; "MC32P7311.c"	LED_FULL_CHARGE_OFF(); // 关闭电池充满电的指示灯
                                           	BSET	_IOP0bits,3
                                           ;	.line	628; "MC32P7311.c"	FLAG_IS_IN_CHARGING = 0;
                                           	BCLR	_flag1,2
                                           ;	.line	630; "MC32P7311.c"	break;
                                           	GOTO	_00467_DS_
                                           _00441_DS_
                                           ;	.line	633; "MC32P7311.c"	if (PWM2OE == 0 && FLAG_BAT_IS_NEED_CHARGE)
                                           	JBCLR	_T2CRbits,6
                                           	GOTO	_00466_DS_
                                           	JBSET	_flag1,4
                                           	GOTO	_00466_DS_
                                           ;	.line	637; "MC32P7311.c"	LED_CHARGING_ON(); // 开启充电指示灯
                                           	BCLR	_IOP0bits,4
                                           ;	.line	638; "MC32P7311.c"	PWM2OE = 1;		   // 开启控制升压电路的pwm
                                           	BSET	_T2CRbits,6
                                           	GOTO	_00466_DS_
                                           ;;unsigned compare: left < lit(0x800=2048), size=2
                                           _00458_DS_
                                           ;	.line	646; "MC32P7311.c"	if (adc_val >= ADCDETECT_CHARING_THRESHOLD)
                                           	MOVAI	0x08
                                           	RSUBAR	(_adc_val + 1)
                                           	JBSET	PFLAG,2
                                           	GOTO	_00597_DS_
                                           	MOVAI	0x00
                                           	RSUBAR	_adc_val
                                           _00597_DS_
                                           	JBSET	PFLAG,0
                                           	GOTO	_00449_DS_
                                           ;;genSkipc:3291: created from rifx:013B5EFC
                                           ;	.line	648; "MC32P7311.c"	cnt++;
                                           	INCR	r0x101B
                                           ;;unsigned compare: left < lit(0x8=8), size=1
                                           _00449_DS_
                                           ;	.line	651; "MC32P7311.c"	if (cnt >= 8)
                                           	MOVAI	0x08
                                           	RSUBAR	r0x101B
                                           	JBSET	PFLAG,0
                                           	GOTO	_00466_DS_
                                           ;;genSkipc:3291: created from rifx:013B5EFC
                                           ;	.line	653; "MC32P7311.c"	if (FLAG_BAT_IS_NEED_CHARGE)
                                           	JBSET	_flag1,4
                                           	GOTO	_00454_DS_
                                           ;	.line	655; "MC32P7311.c"	LED_CHARGING_ON(); // 开启充电指示灯
                                           	BCLR	_IOP0bits,4
                                           ;	.line	656; "MC32P7311.c"	PWM2OE = 1;		   // 开启控制升压电路的pwm
                                           	BSET	_T2CRbits,6
                                           _00454_DS_
                                           ;	.line	659; "MC32P7311.c"	FLAG_IS_IN_CHARGING = 1;
                                           	BSET	_flag1,2
                                           ;	.line	660; "MC32P7311.c"	break;
                                           	GOTO	_00467_DS_
                                           _00466_DS_
                                           ;	.line	611; "MC32P7311.c"	for (i = 0; i < 10; i++)
                                           	INCR	_i
                                           	GOTO	_00465_DS_
                                           _00467_DS_
                                           ;	.line	664; "MC32P7311.c"	}
                                           	RETURN	
                                           ; exit point of _adc_scan_handle
                                           
                                           ;***
                                           ;  pBlock Stats: dbName = C
                                           ;***
                                           ;entry:  _key_handle	;Function start
                                           ; 2 exit points
                                           ;has an exit
                                           ;1 compiler assigned register :
                                           ;   r0x100E
                                           ;; Starting pCode block
                                           _key_handle	;Function start
                                           ; 2 exit points
                                           ;	.line	430; "MC32P7311.c"	if (key_press_flag)
                                           	MOVAI	0x00
                                           	ORAR	_key_press_flag
                                           	JBCLR	PFLAG,2
                                           	GOTO	_00379_DS_
                                           ;	.line	433; "MC32P7311.c"	switch (key_press_flag)
                                           	MOVAR	_key_press_flag
                                           	MOVRA	r0x100E
                                           ;;unsigned compare: left < lit(0x1=1), size=1
                                           	MOVAI	0x01
                                           	RSUBAR	r0x100E
                                           	JBSET	PFLAG,0
                                           	GOTO	_00376_DS_
                                           ;;genSkipc:3291: created from rifx:013B5EFC
                                           ;;swapping arguments (AOP_TYPEs 1/2)
                                           ;;unsigned compare: left >= lit(0x4=4), size=1
                                           	MOVAI	0x04
                                           	RSUBAR	r0x100E
                                           	JBCLR	PFLAG,0
                                           	GOTO	_00376_DS_
                                           ;;genSkipc:3291: created from rifx:013B5EFC
                                           	DECR	r0x100E
                                           	MOVAR	r0x100E
                                           	ADDRA	PCL
                                           	GOTO	_00336_DS_
                                           	GOTO	_00348_DS_
                                           	GOTO	_00359_DS_
                                           _00336_DS_
                                           ;	.line	436; "MC32P7311.c"	if (FLAG_IS_DEVICE_OPEN)
                                           	JBSET	_flag1,0
                                           	GOTO	_00376_DS_
                                           ;	.line	439; "MC32P7311.c"	if (0 == FLAG_IS_HEATING)
                                           	JBCLR	_flag1,1
                                           	GOTO	_00340_DS_
                                           ;	.line	441; "MC32P7311.c"	HEATING_ON(); // 打开加热
                                           	BSET	_IOP1bits,2
                                           ;	.line	442; "MC32P7311.c"	FLAG_IS_HEATING = 1;
                                           	BSET	_flag1,1
                                           	GOTO	_00376_DS_
                                           _00340_DS_
                                           ;	.line	446; "MC32P7311.c"	HEATING_OFF(); // 关闭加热
                                           	BCLR	_IOP1bits,2
                                           ;	.line	447; "MC32P7311.c"	FLAG_IS_HEATING = 0;
                                           	BCLR	_flag1,1
                                           ;	.line	450; "MC32P7311.c"	break;
                                           	GOTO	_00376_DS_
                                           _00348_DS_
                                           ;	.line	454; "MC32P7311.c"	if (FLAG_IS_DEVICE_OPEN)
                                           	JBSET	_flag1,0
                                           	GOTO	_00376_DS_
                                           ;	.line	457; "MC32P7311.c"	if (MODE_1 == mode_flag)
                                           	MOVAI	0x00
                                           	ORAR	_mode_flag
                                           	JBSET	PFLAG,2
                                           	GOTO	_00355_DS_
                                           ;	.line	460; "MC32P7311.c"	T0DATA = 255;
                                           	MOVAI	0xff
                                           	MOVRA	_T0DATA
                                           ;	.line	461; "MC32P7311.c"	T1DATA = 255; // 100%占空比（确保大于TxLOAD的值就可以）
                                           	MOVAI	0xff
                                           	MOVRA	_T1DATA
                                           ;	.line	463; "MC32P7311.c"	mode_flag = MODE_2;
                                           	MOVAI	0x01
                                           	MOVRA	_mode_flag
                                           	GOTO	_00376_DS_
                                           _00355_DS_
                                           ;	.line	465; "MC32P7311.c"	else if (MODE_2 == mode_flag)
                                           	MOVAR	_mode_flag
                                           	XORAI	0x01
                                           	JBSET	PFLAG,2
                                           	GOTO	_00352_DS_
                                           ;	.line	468; "MC32P7311.c"	T0DATA = 103;
                                           	MOVAI	0x67
                                           	MOVRA	_T0DATA
                                           ;	.line	469; "MC32P7311.c"	T1DATA = 103; // 80.5%占空比
                                           	MOVAI	0x67
                                           	MOVRA	_T1DATA
                                           ;	.line	471; "MC32P7311.c"	mode_flag = MODE_3;
                                           	MOVAI	0x02
                                           	MOVRA	_mode_flag
                                           	GOTO	_00376_DS_
                                           _00352_DS_
                                           ;	.line	473; "MC32P7311.c"	else if (MODE_3 == mode_flag)
                                           	MOVAR	_mode_flag
                                           	XORAI	0x02
                                           	JBSET	PFLAG,2
                                           	GOTO	_00376_DS_
                                           ;	.line	476; "MC32P7311.c"	T0DATA = 115;
                                           	MOVAI	0x73
                                           	MOVRA	_T0DATA
                                           ;	.line	477; "MC32P7311.c"	T1DATA = 115; // 89.9%占空比
                                           	MOVAI	0x73
                                           	MOVRA	_T1DATA
                                           ;	.line	479; "MC32P7311.c"	mode_flag = MODE_1;
                                           	CLRR	_mode_flag
                                           ;	.line	482; "MC32P7311.c"	break;
                                           	GOTO	_00376_DS_
                                           _00359_DS_
                                           ;	.line	485; "MC32P7311.c"	if (0 == FLAG_IS_DEVICE_OPEN)
                                           	JBCLR	_flag1,0
                                           	GOTO	_00366_DS_
                                           ;	.line	488; "MC32P7311.c"	LED_WORKING_ON(); // 打开电源指示灯
                                           	BCLR	_IOP1bits,4
                                           ;	.line	489; "MC32P7311.c"	HEATING_ON();	  // 打开加热
                                           	BSET	_IOP1bits,2
                                           ;	.line	490; "MC32P7311.c"	FLAG_IS_DEVICE_OPEN = 1;
                                           	BSET	_flag1,0
                                           ;	.line	491; "MC32P7311.c"	FLAG_IS_HEATING = 1;
                                           	BSET	_flag1,1
                                           ;	.line	494; "MC32P7311.c"	T0DATA = 115;
                                           	MOVAI	0x73
                                           	MOVRA	_T0DATA
                                           ;	.line	495; "MC32P7311.c"	T1DATA = 115;		// 约为 89.9%
                                           	MOVAI	0x73
                                           	MOVRA	_T1DATA
                                           ;	.line	496; "MC32P7311.c"	mode_flag = MODE_1; // 下一次切换模式时，会变成 MODE_2
                                           	CLRR	_mode_flag
                                           ;	.line	499; "MC32P7311.c"	PWM0OE = 1;
                                           	BSET	_T0CRbits,6
                                           	GOTO	_00376_DS_
                                           _00366_DS_
                                           ;	.line	504; "MC32P7311.c"	LED_WORKING_OFF(); // 关闭电源指示灯
                                           	BSET	_IOP1bits,4
                                           ;	.line	505; "MC32P7311.c"	HEATING_OFF();	   // 关闭加热
                                           	BCLR	_IOP1bits,2
                                           ;	.line	506; "MC32P7311.c"	FLAG_IS_DEVICE_OPEN = 0;
                                           	BCLR	_flag1,0
                                           ;	.line	507; "MC32P7311.c"	FLAG_IS_HEATING = 0;
                                           	BCLR	_flag1,1
                                           ;	.line	509; "MC32P7311.c"	mode_flag = MODE_1; // 下一次切换模式时，会变成 MODE_2
                                           	CLRR	_mode_flag
                                           ;	.line	512; "MC32P7311.c"	PWM0OE = 0;
                                           	BCLR	_T0CRbits,6
                                           ;	.line	513; "MC32P7311.c"	PWM1OE = 0;
                                           	BCLR	_T1CRbits,6
                                           _00376_DS_
                                           ;	.line	521; "MC32P7311.c"	key_press_flag = KEY_NONE;
                                           	CLRR	_key_press_flag
                                           _00379_DS_
                                           ;	.line	523; "MC32P7311.c"	}
                                           	RETURN	
                                           ; exit point of _key_handle
                                           
                                           ;***
                                           ;  pBlock Stats: dbName = C
                                           ;***
                                           ;entry:  _key_scan	;Function start
                                           ; 2 exit points
                                           ;has an exit
                                           ;functions called:
                                           ;   _delay_ms
                                           ;   _delay_ms
                                           ;   _delay_ms
                                           ;   _delay_ms
                                           ;   _delay_ms
                                           ;   _delay_ms
                                           ;5 compiler assigned registers:
                                           ;   r0x101A
                                           ;   r0x101B
                                           ;   STK02
                                           ;   STK01
                                           ;   STK00
                                           ;; Starting pCode block
                                           _key_scan	;Function start
                                           ; 2 exit points
                                           ;	.line	348; "MC32P7311.c"	u8 cnt = 0;
                                           	CLRR	r0x101A
                                           ;	.line	350; "MC32P7311.c"	if (0 == KEY_POWER_PIN)
                                           	JBCLR	_IOP1bits,1
                                           	GOTO	_00274_DS_
                                           ;	.line	352; "MC32P7311.c"	for (i = 0; i < 20; i++)
                                           	CLRR	_i
                                           	CLRR	r0x101B
                                           ;;unsigned compare: left < lit(0x14=20), size=1
                                           _00299_DS_
                                           	MOVAI	0x14
                                           	RSUBAR	_i
                                           	JBCLR	PFLAG,0
                                           	GOTO	_00331_DS_
                                           ;;genSkipc:3291: created from rifx:013B5EFC
                                           ;	.line	354; "MC32P7311.c"	if (0 == KEY_POWER_PIN)
                                           	JBCLR	_IOP1bits,1
                                           	GOTO	_00266_DS_
                                           ;	.line	356; "MC32P7311.c"	cnt++;
                                           	INCR	r0x101B
                                           _00266_DS_
                                           ;	.line	358; "MC32P7311.c"	delay_ms(1);
                                           	MOVAI	0x01
                                           	MOVRA	STK02
                                           	MOVAI	0x00
                                           	MOVRA	STK01
                                           	MOVAI	0x00
                                           	MOVRA	STK00
                                           	MOVAI	0x00
                                           	CALL	_delay_ms
                                           ;	.line	352; "MC32P7311.c"	for (i = 0; i < 20; i++)
                                           	INCR	_i
                                           	GOTO	_00299_DS_
                                           _00331_DS_
                                           	MOVAR	r0x101B
                                           	MOVRA	r0x101A
                                           ;;unsigned compare: left < lit(0xF=15), size=1
                                           ;	.line	361; "MC32P7311.c"	if (cnt >= 15)
                                           	MOVAI	0x0f
                                           	RSUBAR	r0x101B
                                           	JBSET	PFLAG,0
                                           	GOTO	_00270_DS_
                                           ;;genSkipc:3291: created from rifx:013B5EFC
                                           ;	.line	363; "MC32P7311.c"	key_press_flag = KEY_POWER_PRESS;
                                           	MOVAI	0x03
                                           	MOVRA	_key_press_flag
                                           _00270_DS_
                                           ;	.line	367; "MC32P7311.c"	while (0 == KEY_POWER_PIN)
                                           	JBCLR	_IOP1bits,1
                                           	GOTO	_00274_DS_
                                           ;	.line	371; "MC32P7311.c"	__endasm;
                                           	;
                                           	CLRWDT;
                                           	
                                           	GOTO	_00270_DS_
                                           _00274_DS_
                                           ;	.line	375; "MC32P7311.c"	if (FLAG_IS_DEVICE_OPEN)
                                           	JBSET	_flag1,0
                                           	GOTO	_00307_DS_
                                           ;	.line	378; "MC32P7311.c"	if (0 == KEY_HEAT_PIN)
                                           	JBCLR	_IOP0bits,5
                                           	GOTO	_00294_DS_
                                           ;	.line	380; "MC32P7311.c"	for (i = 0; i < 20; i++)
                                           	CLRR	_i
                                           	MOVAR	r0x101A
                                           	MOVRA	r0x101B
                                           ;;unsigned compare: left < lit(0x14=20), size=1
                                           _00302_DS_
                                           	MOVAI	0x14
                                           	RSUBAR	_i
                                           	JBCLR	PFLAG,0
                                           	GOTO	_00277_DS_
                                           ;;genSkipc:3291: created from rifx:013B5EFC
                                           ;	.line	382; "MC32P7311.c"	if (0 == KEY_HEAT_PIN)
                                           	JBCLR	_IOP0bits,5
                                           	GOTO	_00276_DS_
                                           ;	.line	384; "MC32P7311.c"	cnt++;
                                           	INCR	r0x101B
                                           _00276_DS_
                                           ;	.line	386; "MC32P7311.c"	delay_ms(1);
                                           	MOVAI	0x01
                                           	MOVRA	STK02
                                           	MOVAI	0x00
                                           	MOVRA	STK01
                                           	MOVAI	0x00
                                           	MOVRA	STK00
                                           	MOVAI	0x00
                                           	CALL	_delay_ms
                                           ;	.line	380; "MC32P7311.c"	for (i = 0; i < 20; i++)
                                           	INCR	_i
                                           	GOTO	_00302_DS_
                                           ;;unsigned compare: left < lit(0xF=15), size=1
                                           _00277_DS_
                                           ;	.line	389; "MC32P7311.c"	if (cnt >= 15)
                                           	MOVAI	0x0f
                                           	RSUBAR	r0x101B
                                           	JBSET	PFLAG,0
                                           	GOTO	_00280_DS_
                                           ;;genSkipc:3291: created from rifx:013B5EFC
                                           ;	.line	391; "MC32P7311.c"	key_press_flag = KEY_HEAT_PRESS;
                                           	MOVAI	0x01
                                           	MOVRA	_key_press_flag
                                           _00280_DS_
                                           ;	.line	394; "MC32P7311.c"	while (0 == KEY_HEAT_PIN) // 等待按键松开
                                           	JBCLR	_IOP0bits,5
                                           	GOTO	_00307_DS_
                                           ;	.line	398; "MC32P7311.c"	__endasm;
                                           	;
                                           	CLRWDT;
                                           	
                                           	GOTO	_00280_DS_
                                           _00294_DS_
                                           ;	.line	401; "MC32P7311.c"	else if (0 == KEY_CHANGE_PIN)
                                           	JBCLR	_IOP0bits,1
                                           	GOTO	_00307_DS_
                                           ;	.line	403; "MC32P7311.c"	for (i = 0; i < 20; i++)
                                           	CLRR	_i
                                           ;;unsigned compare: left < lit(0x14=20), size=1
                                           _00305_DS_
                                           	MOVAI	0x14
                                           	RSUBAR	_i
                                           	JBCLR	PFLAG,0
                                           	GOTO	_00285_DS_
                                           ;;genSkipc:3291: created from rifx:013B5EFC
                                           ;	.line	405; "MC32P7311.c"	if (0 == KEY_CHANGE_PIN)
                                           	JBCLR	_IOP0bits,1
                                           	GOTO	_00284_DS_
                                           ;	.line	407; "MC32P7311.c"	cnt++;
                                           	INCR	r0x101A
                                           _00284_DS_
                                           ;	.line	409; "MC32P7311.c"	delay_ms(1);
                                           	MOVAI	0x01
                                           	MOVRA	STK02
                                           	MOVAI	0x00
                                           	MOVRA	STK01
                                           	MOVAI	0x00
                                           	MOVRA	STK00
                                           	MOVAI	0x00
                                           	CALL	_delay_ms
                                           ;	.line	403; "MC32P7311.c"	for (i = 0; i < 20; i++)
                                           	INCR	_i
                                           	GOTO	_00305_DS_
                                           ;;unsigned compare: left < lit(0xF=15), size=1
                                           _00285_DS_
                                           ;	.line	412; "MC32P7311.c"	if (cnt >= 15)
                                           	MOVAI	0x0f
                                           	RSUBAR	r0x101A
                                           	JBSET	PFLAG,0
                                           	GOTO	_00288_DS_
                                           ;;genSkipc:3291: created from rifx:013B5EFC
                                           ;	.line	414; "MC32P7311.c"	key_press_flag = KEY_CHANGE_PRESS;
                                           	MOVAI	0x02
                                           	MOVRA	_key_press_flag
                                           _00288_DS_
                                           ;	.line	417; "MC32P7311.c"	while (0 == KEY_CHANGE_PIN) // 等待按键松开
                                           	JBCLR	_IOP0bits,1
                                           	GOTO	_00307_DS_
                                           ;	.line	421; "MC32P7311.c"	__endasm;
                                           	;
                                           	CLRWDT;
                                           	
                                           	GOTO	_00288_DS_
                                           _00307_DS_
                                           ;	.line	425; "MC32P7311.c"	}
                                           	RETURN	
                                           ; exit point of _key_scan
                                           
                                           ;***
                                           ;  pBlock Stats: dbName = C
                                           ;***
                                           ;entry:  _Sys_Init	;Function start
                                           ; 2 exit points
                                           ;has an exit
                                           ;functions called:
                                           ;   _CLR_RAM
                                           ;   _IO_Init
                                           ;   _timer0_pwm_config
                                           ;   _timer1_pwm_config
                                           ;   _timer2_pwm_config
                                           ;   _key_config
                                           ;   _adc_config
                                           ;   _CLR_RAM
                                           ;   _IO_Init
                                           ;   _timer0_pwm_config
                                           ;   _timer1_pwm_config
                                           ;   _timer2_pwm_config
                                           ;   _key_config
                                           ;   _adc_config
                                           ;; Starting pCode block
                                           _Sys_Init	;Function start
                                           ; 2 exit points
                                           ;	.line	331; "MC32P7311.c"	GIE = 0;
                                           	BCLR	_MCRbits,7
                                           ;	.line	332; "MC32P7311.c"	CLR_RAM();
                                           	CALL	_CLR_RAM
                                           ;	.line	333; "MC32P7311.c"	IO_Init();
                                           	CALL	_IO_Init
                                           ;	.line	335; "MC32P7311.c"	timer0_pwm_config();
                                           	CALL	_timer0_pwm_config
                                           ;	.line	336; "MC32P7311.c"	timer1_pwm_config();
                                           	CALL	_timer1_pwm_config
                                           ;	.line	337; "MC32P7311.c"	timer2_pwm_config();
                                           	CALL	_timer2_pwm_config
                                           ;	.line	339; "MC32P7311.c"	key_config();
                                           	CALL	_key_config
                                           ;	.line	340; "MC32P7311.c"	adc_config();
                                           	CALL	_adc_config
                                           ;	.line	342; "MC32P7311.c"	GIE = 1;
                                           	BSET	_MCRbits,7
                                           ;	.line	343; "MC32P7311.c"	}
                                           	RETURN	
                                           ; exit point of _Sys_Init
                                           
                                           ;***
                                           ;  pBlock Stats: dbName = C
                                           ;***
                                           ;entry:  _adc_get_val	;Function start
                                           ; 2 exit points
                                           ;has an exit
                                           ;14 compiler assigned registers:
                                           ;   r0x100E
                                           ;   r0x100F
                                           ;   r0x1010
                                           ;   r0x1011
                                           ;   r0x1012
                                           ;   r0x1013
                                           ;   r0x1014
                                           ;   r0x1015
                                           ;   r0x1016
                                           ;   r0x1017
                                           ;   r0x1018
                                           ;   r0x1019
                                           ;   r0x101A
                                           ;   STK00
                                           ;; Starting pCode block
                                           _adc_get_val	;Function start
                                           ; 2 exit points
                                           ;	.line	296; "MC32P7311.c"	u16 g_tmpbuff = 0;
                                           	CLRR	r0x100E
                                           	CLRR	r0x100F
                                           ;	.line	297; "MC32P7311.c"	u16 g_adcmax = 0;
                                           	CLRR	r0x1010
                                           	CLRR	r0x1011
                                           ;	.line	298; "MC32P7311.c"	u16 g_adcmin = 0xFFFF;
                                           	MOVAI	0xff
                                           	MOVRA	r0x1012
                                           	MOVRA	r0x1013
                                           ;	.line	301; "MC32P7311.c"	for (cnt = 0; cnt < 20; cnt++)
                                           	CLRR	r0x1014
                                           _00215_DS_
                                           ;	.line	303; "MC32P7311.c"	ADEOC = 0; // 清除ADC转换完成标志位，启动AD转换
                                           	BCLR	_ADCR0bits,1
                                           _00204_DS_
                                           ;	.line	304; "MC32P7311.c"	while (!ADEOC)
                                           	JBSET	_ADCR0bits,1
                                           	GOTO	_00204_DS_
                                           ;	.line	306; "MC32P7311.c"	g_temp_value = ADRH; // 取出转换后的值
                                           	MOVAR	_ADRH
                                           	MOVRA	r0x1015
                                           	CLRR	r0x1016
                                           ;	.line	307; "MC32P7311.c"	g_temp_value = g_temp_value << 4 | (ADRL & 0x0F);
                                           	SWAPAR	r0x1016
                                           	ANDAI	0xf0
                                           	MOVRA	r0x1017
                                           	SWAPAR	r0x1015
                                           	MOVRA	r0x1018
                                           	ANDAI	0x0f
                                           	ORRA	r0x1017
                                           	XORRA	r0x1018
                                           	MOVAR	_ADRL
                                           	MOVRA	r0x1015
                                           	CLRR	r0x1016
                                           	MOVAI	0x0f
                                           	ANDRA	r0x1015
                                           	CLRR	r0x1016
                                           ;;101	MOVAR	r0x1015
                                           ;;99	MOVRA	r0x1019
                                           ;;104	MOVAR	r0x1016
                                           ;;102	MOVRA	r0x101A
                                           ;;100	MOVAR	r0x1019
                                           	MOVAR	r0x1015
                                           	ORAR	r0x1018
                                           	MOVRA	r0x1015
                                           ;;103	MOVAR	r0x101A
                                           	MOVAI	0x00
                                           	ORAR	r0x1017
                                           	MOVRA	r0x1016
                                           ;;unsigned compare: left < lit(0x2=2), size=1
                                           ;	.line	308; "MC32P7311.c"	if (cnt < 2)
                                           	MOVAI	0x02
                                           	RSUBAR	r0x1014
                                           	JBSET	PFLAG,0
                                           	GOTO	_00213_DS_
                                           ;;genSkipc:3291: created from rifx:013B5EFC
                                           ;	.line	310; "MC32P7311.c"	if (g_temp_value > g_adcmax)
                                           	MOVAR	r0x1016
                                           	RSUBAR	r0x1011
                                           	JBSET	PFLAG,2
                                           	GOTO	_00255_DS_
                                           	MOVAR	r0x1015
                                           	RSUBAR	r0x1010
                                           _00255_DS_
                                           	JBCLR	PFLAG,0
                                           	GOTO	_00210_DS_
                                           ;;genSkipc:3291: created from rifx:013B5EFC
                                           ;	.line	311; "MC32P7311.c"	g_adcmax = g_temp_value; // 最大
                                           	MOVAR	r0x1015
                                           	MOVRA	r0x1010
                                           	MOVAR	r0x1016
                                           	MOVRA	r0x1011
                                           _00210_DS_
                                           ;	.line	312; "MC32P7311.c"	if (g_temp_value < g_adcmin)
                                           	MOVAR	r0x1013
                                           	RSUBAR	r0x1016
                                           	JBSET	PFLAG,2
                                           	GOTO	_00256_DS_
                                           	MOVAR	r0x1012
                                           	RSUBAR	r0x1015
                                           _00256_DS_
                                           	JBCLR	PFLAG,0
                                           	GOTO	_00212_DS_
                                           ;;genSkipc:3291: created from rifx:013B5EFC
                                           ;	.line	313; "MC32P7311.c"	g_adcmin = g_temp_value; // 最小
                                           	MOVAR	r0x1015
                                           	MOVRA	r0x1012
                                           	MOVAR	r0x1016
                                           	MOVRA	r0x1013
                                           _00212_DS_
                                           ;	.line	314; "MC32P7311.c"	g_tmpbuff += g_temp_value;
                                           	MOVAR	r0x1015
                                           	ADDRA	r0x100E
                                           	MOVAR	r0x1016
                                           	JBCLR	PFLAG,0
                                           	JZAR	r0x1016
                                           	ADDRA	r0x100F
                                           _00213_DS_
                                           ;	.line	301; "MC32P7311.c"	for (cnt = 0; cnt < 20; cnt++)
                                           	INCR	r0x1014
                                           ;;unsigned compare: left < lit(0x14=20), size=1
                                           	MOVAI	0x14
                                           	RSUBAR	r0x1014
                                           	JBSET	PFLAG,0
                                           	GOTO	_00215_DS_
                                           ;;genSkipc:3291: created from rifx:013B5EFC
                                           ;	.line	316; "MC32P7311.c"	g_tmpbuff -= g_adcmax;			 // 去掉一个最大
                                           	MOVAR	r0x1010
                                           	RSUBAR	r0x100E
                                           	MOVRA	r0x1010
                                           	MOVAR	r0x1011
                                           	JBSET	PFLAG,0
                                           	INCAR	r0x1011
                                           	RSUBAR	r0x100F
                                           	MOVRA	r0x1011
                                           ;	.line	317; "MC32P7311.c"	g_tmpbuff -= g_adcmin;			 // 去掉一个最小
                                           	MOVAR	r0x1012
                                           	RSUBRA	r0x1010
                                           	MOVAR	r0x1013
                                           	JBSET	PFLAG,0
                                           	JZAR	r0x1013
                                           	RSUBRA	r0x1011
                                           ;	.line	318; "MC32P7311.c"	g_temp_value = (g_tmpbuff >> 4); // 除以16，取平均值
                                           	SWAPAR	r0x1010
                                           	ANDAI	0x0f
                                           	MOVRA	r0x100E
                                           	SWAPAR	r0x1011
                                           	MOVRA	r0x100F
                                           	ANDAI	0xf0
                                           	ORRA	r0x100E
                                           	XORRA	r0x100F
                                           ;	.line	320; "MC32P7311.c"	return g_temp_value;
                                           	MOVAR	r0x100E
                                           	MOVRA	STK00
                                           	MOVAR	r0x100F
                                           ;	.line	321; "MC32P7311.c"	}
                                           	RETURN	
                                           ; exit point of _adc_get_val
                                           
                                           ;***
                                           ;  pBlock Stats: dbName = C
                                           ;***
                                           ;entry:  _adc_sel_pin	;Function start
                                           ; 2 exit points
                                           ;has an exit
                                           ;functions called:
                                           ;   _delay_ms
                                           ;   _delay_ms
                                           ;4 compiler assigned registers:
                                           ;   r0x101A
                                           ;   STK02
                                           ;   STK01
                                           ;   STK00
                                           ;; Starting pCode block
                                           _adc_sel_pin	;Function start
                                           ; 2 exit points
                                           ;	.line	269; "MC32P7311.c"	void adc_sel_pin(u8 adc_pin)
                                           	MOVRA	r0x101A
                                           ;	.line	272; "MC32P7311.c"	switch (adc_pin)
                                           	MOVAR	r0x101A
                                           	XORAI	0x01
                                           	JBSET	PFLAG,2
                                           	GOTO	_00198_DS_
                                           	GOTO	_00184_DS_
                                           _00198_DS_
                                           	MOVAR	r0x101A
                                           	XORAI	0x02
                                           	JBSET	PFLAG,2
                                           	GOTO	_00199_DS_
                                           	GOTO	_00185_DS_
                                           _00199_DS_
                                           	GOTO	_00187_DS_
                                           _00184_DS_
                                           ;	.line	275; "MC32P7311.c"	ADCR0 &= ~(0x0F << 4); // 清空寄存器的通道选择位
                                           	MOVAI	0x0f
                                           	ANDRA	_ADCR0
                                           ;	.line	277; "MC32P7311.c"	break;
                                           	GOTO	_00187_DS_
                                           _00185_DS_
                                           ;	.line	280; "MC32P7311.c"	ADCR0 &= ~(0x0F << 4); // 清空寄存器的通道选择位
                                           	MOVAI	0x0f
                                           	ANDRA	_ADCR0
                                           ;	.line	281; "MC32P7311.c"	ADCR0 |= 0x01 << 4;	   // AIN1--P02;
                                           	BSET	_ADCR0,4
                                           _00187_DS_
                                           ;	.line	288; "MC32P7311.c"	delay_ms(1); // 切换adc检测的引脚后，要延时一段时间，防止意料之外的检测结果
                                           	MOVAI	0x01
                                           	MOVRA	STK02
                                           	MOVAI	0x00
                                           	MOVRA	STK01
                                           	MOVAI	0x00
                                           	MOVRA	STK00
                                           	MOVAI	0x00
                                           	CALL	_delay_ms
                                           ;	.line	289; "MC32P7311.c"	}
                                           	RETURN	
                                           ; exit point of _adc_sel_pin
                                           
                                           ;***
                                           ;  pBlock Stats: dbName = C
                                           ;***
                                           ;entry:  _adc_config	;Function start
                                           ; 2 exit points
                                           ;has an exit
                                           ;; Starting pCode block
                                           _adc_config	;Function start
                                           ; 2 exit points
                                           ;	.line	247; "MC32P7311.c"	P00PU = 0; // 关闭上下拉
                                           	BCLR	_PUP0bits,0
                                           ;	.line	248; "MC32P7311.c"	P00PD = 0;
                                           	BCLR	_PDP0bits,0
                                           ;	.line	249; "MC32P7311.c"	P00OE = 0;	// 输入模式
                                           	BCLR	_OEP0bits,0
                                           ;	.line	250; "MC32P7311.c"	P00ANS = 1; // 模拟输入
                                           	BSET	_ANSEL0bits,0
                                           ;	.line	253; "MC32P7311.c"	P02PU = 0; // 关闭上下拉
                                           	BCLR	_PUP0bits,2
                                           ;	.line	254; "MC32P7311.c"	P02PD = 0;
                                           	BCLR	_PDP0bits,2
                                           ;	.line	255; "MC32P7311.c"	P02OE = 0;	// 输入模式
                                           	BCLR	_OEP0bits,2
                                           ;	.line	256; "MC32P7311.c"	P02ANS = 1; // 模拟输入
                                           	BSET	_ANSEL0bits,1
                                           ;	.line	258; "MC32P7311.c"	ADCR0 = 0x0A; // 12位精度、不启用ADC转换，不使能ADC
                                           	MOVAI	0x0a
                                           	MOVRA	_ADCR0
                                           ;	.line	263; "MC32P7311.c"	ADCR1 = 0xE1; // 125K采样（最高精度）  内部3V参考电压
                                           	MOVAI	0xe1
                                           	MOVRA	_ADCR1
                                           ;	.line	264; "MC32P7311.c"	ADCR2 = 0xFF; // ADC采样时间为15个ADC时钟
                                           	MOVAI	0xff
                                           	MOVRA	_ADCR2
                                           ;	.line	265; "MC32P7311.c"	ADON = 1;	  // 使能ADC
                                           	BSET	_ADCR0bits,0
                                           ;	.line	266; "MC32P7311.c"	}
                                           	RETURN	
                                           ; exit point of _adc_config
                                           
                                           ;***
                                           ;  pBlock Stats: dbName = C
                                           ;***
                                           ;entry:  _key_config	;Function start
                                           ; 2 exit points
                                           ;has an exit
                                           ;; Starting pCode block
                                           _key_config	;Function start
                                           ; 2 exit points
                                           ;	.line	221; "MC32P7311.c"	P05PU = 1;
                                           	BSET	_PUP0bits,5
                                           ;	.line	222; "MC32P7311.c"	P05OE = 0;
                                           	BCLR	_OEP0bits,5
                                           ;	.line	231; "MC32P7311.c"	MINT00 = 1; // MINT00、MINT01，组合配置INT0为下降沿中断
                                           	BSET	_MCRbits,0
                                           ;	.line	232; "MC32P7311.c"	MINT01 = 0;
                                           	BCLR	_MCRbits,1
                                           ;	.line	233; "MC32P7311.c"	P11PU = 1;
                                           	BSET	_PUP1bits,1
                                           ;	.line	234; "MC32P7311.c"	P11OE = 0;
                                           	BCLR	_OEP1bits,1
                                           ;	.line	235; "MC32P7311.c"	INT0IF = 0; // 清除中断标志
                                           	BCLR	_INTFbits,2
                                           ;	.line	236; "MC32P7311.c"	INT0IE = 1; // 外部中断使能
                                           	BSET	_INTEbits,2
                                           ;	.line	239; "MC32P7311.c"	P01PU = 1;
                                           	BSET	_PUP0bits,1
                                           ;	.line	240; "MC32P7311.c"	P01OE = 0;
                                           	BCLR	_OEP0bits,1
                                           ;	.line	241; "MC32P7311.c"	}
                                           	RETURN	
                                           ; exit point of _key_config
                                           
                                           ;***
                                           ;  pBlock Stats: dbName = C
                                           ;***
                                           ;entry:  _timer2_pwm_config	;Function start
                                           ; 2 exit points
                                           ;has an exit
                                           ;; Starting pCode block
                                           _timer2_pwm_config	;Function start
                                           ; 2 exit points
                                           ;	.line	206; "MC32P7311.c"	T2LOAD = 52 - 1;
                                           	MOVAI	0x33
                                           	MOVRA	_T2LOAD
                                           ;	.line	208; "MC32P7311.c"	T2DATA = 23; // 占空比 == TxDATA / TxLOAD   实际测得是46.15%占空比
                                           	MOVAI	0x17
                                           	MOVRA	_T2DATA
                                           ;	.line	210; "MC32P7311.c"	PWM2OE = 0; // 禁止PWM输出
                                           	BCLR	_T2CRbits,6
                                           ;	.line	212; "MC32P7311.c"	TC2EN = 1;
                                           	BSET	_T2CRbits,7
                                           ;	.line	213; "MC32P7311.c"	}
                                           	RETURN	
                                           ; exit point of _timer2_pwm_config
                                           
                                           ;***
                                           ;  pBlock Stats: dbName = C
                                           ;***
                                           ;entry:  _timer1_pwm_close	;Function start
                                           ; 2 exit points
                                           ;has an exit
                                           ;; Starting pCode block
                                           _timer1_pwm_close	;Function start
                                           ; 2 exit points
                                           ;	.line	180; "MC32P7311.c"	PWM1OE = 0;
                                           	BCLR	_T1CRbits,6
                                           ;	.line	181; "MC32P7311.c"	}
                                           	RETURN	
                                           ; exit point of _timer1_pwm_close
                                           
                                           ;***
                                           ;  pBlock Stats: dbName = C
                                           ;***
                                           ;entry:  _timer1_pwm_open	;Function start
                                           ; 2 exit points
                                           ;has an exit
                                           ;; Starting pCode block
                                           _timer1_pwm_open	;Function start
                                           ; 2 exit points
                                           ;	.line	174; "MC32P7311.c"	PWM1OE = 1;
                                           	BSET	_T1CRbits,6
                                           ;	.line	175; "MC32P7311.c"	}
                                           	RETURN	
                                           ; exit point of _timer1_pwm_open
                                           
                                           ;***
                                           ;  pBlock Stats: dbName = C
                                           ;***
                                           ;entry:  _timer1_pwm_config	;Function start
                                           ; 2 exit points
                                           ;has an exit
                                           ;; Starting pCode block
                                           _timer1_pwm_config	;Function start
                                           ; 2 exit points
                                           ;	.line	147; "MC32P7311.c"	T1CR |= 0x02; // 4分频
                                           	BSET	_T1CR,1
                                           ;	.line	148; "MC32P7311.c"	T1LOAD = 128 - 1;
                                           	MOVAI	0x7f
                                           	MOVRA	_T1LOAD
                                           ;	.line	149; "MC32P7311.c"	T1DATA = 25; // 占空比 == T1DATA / T1LOAD
                                           	MOVAI	0x19
                                           	MOVRA	_T1DATA
                                           ;	.line	150; "MC32P7311.c"	PWM1OE = 0;	 // 禁止PWM1输出
                                           	BCLR	_T1CRbits,6
                                           ;	.line	151; "MC32P7311.c"	TC1EN = 1;	 // 启动定时器
                                           	BSET	_T1CRbits,7
                                           ;	.line	169; "MC32P7311.c"	}
                                           	RETURN	
                                           ; exit point of _timer1_pwm_config
                                           
                                           ;***
                                           ;  pBlock Stats: dbName = C
                                           ;***
                                           ;entry:  _timer0_pwm_config	;Function start
                                           ; 2 exit points
                                           ;has an exit
                                           ;; Starting pCode block
                                           _timer0_pwm_config	;Function start
                                           ; 2 exit points
                                           ;	.line	117; "MC32P7311.c"	T0CR |= 0x02; // 4分频
                                           	BSET	_T0CR,1
                                           ;	.line	118; "MC32P7311.c"	T0LOAD = 128 - 1;
                                           	MOVAI	0x7f
                                           	MOVRA	_T0LOAD
                                           ;	.line	119; "MC32P7311.c"	T0DATA = 25; // 占空比 == T0DATA / T0LOAD
                                           	MOVAI	0x19
                                           	MOVRA	_T0DATA
                                           ;	.line	120; "MC32P7311.c"	PWM0OE = 0;	 // 禁止PWM输出
                                           	BCLR	_T0CRbits,6
                                           ;	.line	122; "MC32P7311.c"	TC0EN = 1; // 启动定时器
                                           	BSET	_T0CRbits,7
                                           ;	.line	140; "MC32P7311.c"	}
                                           	RETURN	
                                           ; exit point of _timer0_pwm_config
                                           
                                           ;***
                                           ;  pBlock Stats: dbName = C
                                           ;***
                                           ;entry:  _IO_Init	;Function start
                                           ; 2 exit points
                                           ;has an exit
                                           ;; Starting pCode block
                                           _IO_Init	;Function start
                                           ; 2 exit points
                                           ;	.line	97; "MC32P7311.c"	IOP0 = 0x00;   // io口数据位
                                           	CLRR	_IOP0
                                           ;	.line	98; "MC32P7311.c"	OEP0 = 0xFF;   // io口方向 1:out  0:in   P00、1输出为开漏
                                           	MOVAI	0xff
                                           	MOVRA	_OEP0
                                           ;	.line	99; "MC32P7311.c"	PUP0 = 0x00;   // io口上拉电阻   1:enable  0:disable
                                           	CLRR	_PUP0
                                           ;	.line	100; "MC32P7311.c"	PDP0 = 0x00;   // io口下拉电阻   1:enable  0:disable
                                           	CLRR	_PDP0
                                           ;	.line	101; "MC32P7311.c"	ANSEL0 = 0x00; // io类型选择  1:模拟输入  0:通用io
                                           	CLRR	_ANSEL0
                                           ;	.line	103; "MC32P7311.c"	IOP1 = 0x00;   // io口数据位
                                           	CLRR	_IOP1
                                           ;	.line	104; "MC32P7311.c"	OEP1 = 0xFF;   // io口方向 1:out  0:in   P13输出为开漏
                                           	MOVAI	0xff
                                           	MOVRA	_OEP1
                                           ;	.line	105; "MC32P7311.c"	PUP1 = 0x00;   // io口上拉电阻   1:enable  0:disable
                                           	CLRR	_PUP1
                                           ;	.line	106; "MC32P7311.c"	PDP1 = 0x00;   // io口下拉电阻   1:enable  0:disable
                                           	CLRR	_PDP1
                                           ;	.line	107; "MC32P7311.c"	ANSEL1 = 0x00; // io类型选择  1:模拟输入  0:通用io
                                           	CLRR	_ANSEL1
                                           ;	.line	109; "MC32P7311.c"	DRVCR = 0x80;
                                           	MOVAI	0x80
                                           	MOVRA	_DRVCR
                                           ;	.line	110; "MC32P7311.c"	}
                                           	RETURN	
                                           ; exit point of _IO_Init
                                           
                                           ;***
                                           ;  pBlock Stats: dbName = C
                                           ;***
                                           ;entry:  _CLR_RAM	;Function start
                                           ; 2 exit points
                                           ;has an exit
                                           ;; Starting pCode block
                                           _CLR_RAM	;Function start
                                           ; 2 exit points
                                           ;	.line	82; "MC32P7311.c"	for (FSR0 = 0; FSR0 < 0xff; FSR0++)
                                           	CLRR	_FSR0
                                           ;;unsigned compare: left < lit(0xFF=255), size=1
                                           _00147_DS_
                                           	MOVAI	0xff
                                           	RSUBAR	_FSR0
                                           	JBCLR	PFLAG,0
                                           	GOTO	_00145_DS_
                                           ;;genSkipc:3291: created from rifx:013B5EFC
                                           ;	.line	84; "MC32P7311.c"	INDF0 = 0x00;
                                           	CLRR	_INDF0
                                           ;	.line	82; "MC32P7311.c"	for (FSR0 = 0; FSR0 < 0xff; FSR0++)
                                           	INCR	_FSR0
                                           	GOTO	_00147_DS_
                                           _00145_DS_
                                           ;	.line	86; "MC32P7311.c"	FSR0 = 0xFF;
                                           	MOVAI	0xff
                                           	MOVRA	_FSR0
                                           ;	.line	87; "MC32P7311.c"	INDF0 = 0x00;
                                           	CLRR	_INDF0
                                           ;	.line	88; "MC32P7311.c"	}
                                           	RETURN	
                                           ; exit point of _CLR_RAM
                                           
                                           ;***
                                           ;  pBlock Stats: dbName = C
                                           ;***
                                           ;entry:  _send_32bits_data_by_irsir	;Function start
                                           ; 2 exit points
                                           ;has an exit
                                           ;functions called:
                                           ;   _delay_ms
                                           ;   _delay_ms
                                           ;   _delay_ms
                                           ;   _delay_ms
                                           ;   _delay_ms
                                           ;   _delay_ms
                                           ;   _delay_ms
                                           ;   _delay_ms
                                           ;   _delay_ms
                                           ;   _delay_ms
                                           ;   _delay_ms
                                           ;   _delay_ms
                                           ;12 compiler assigned registers:
                                           ;   r0x101F
                                           ;   STK00
                                           ;   r0x1020
                                           ;   STK01
                                           ;   r0x1021
                                           ;   STK02
                                           ;   r0x1022
                                           ;   r0x1023
                                           ;   r0x1024
                                           ;   r0x1025
                                           ;   r0x1026
                                           ;   r0x1027
                                           ;; Starting pCode block
                                           _send_32bits_data_by_irsir	;Function start
                                           ; 2 exit points
                                           ;	.line	34; "MC32P7311.c"	void send_32bits_data_by_irsir(u32 send_data)
                                           	MOVRA	r0x101F
                                           	MOVAR	STK00
                                           	MOVRA	r0x1020
                                           	MOVAR	STK01
                                           	MOVRA	r0x1021
                                           	MOVAR	STK02
                                           	MOVRA	r0x1022
                                           ;	.line	38; "MC32P7311.c"	P10D = 1;
                                           	BSET	_IOP1bits,0
                                           ;	.line	39; "MC32P7311.c"	delay_ms(15);
                                           	MOVAI	0x0f
                                           	MOVRA	STK02
                                           	MOVAI	0x00
                                           	MOVRA	STK01
                                           	MOVAI	0x00
                                           	MOVRA	STK00
                                           	MOVAI	0x00
                                           	CALL	_delay_ms
                                           ;	.line	41; "MC32P7311.c"	P10D = 0;
                                           	BCLR	_IOP1bits,0
                                           ;	.line	42; "MC32P7311.c"	delay_ms(7); // 延时4.5ms
                                           	MOVAI	0x07
                                           	MOVRA	STK02
                                           	MOVAI	0x00
                                           	MOVRA	STK01
                                           	MOVAI	0x00
                                           	MOVRA	STK00
                                           	MOVAI	0x00
                                           	CALL	_delay_ms
                                           ;	.line	44; "MC32P7311.c"	for (u8 i = 0; i < 32; i++)
                                           	CLRR	r0x1023
                                           ;;unsigned compare: left < lit(0x20=32), size=1
                                           _00121_DS_
                                           	MOVAI	0x20
                                           	RSUBAR	r0x1023
                                           	JBCLR	PFLAG,0
                                           	GOTO	_00119_DS_
                                           ;;genSkipc:3291: created from rifx:013B5EFC
                                           ;	.line	46; "MC32P7311.c"	if ((send_data >> i) & 0x01)
                                           	MOVAR	r0x101F
                                           	MOVRA	r0x1024
                                           	MOVAR	r0x1020
                                           	MOVRA	r0x1025
                                           	MOVAR	r0x1021
                                           	MOVRA	r0x1026
                                           	MOVAR	r0x1022
                                           	MOVRA	r0x1027
                                           	MOVAR	r0x1023
                                           	ISUBAI	0x00
                                           	JBCLR	PFLAG,2
                                           	GOTO	_00140_DS_
                                           _00139_DS_
                                           	RRR	r0x1024
                                           	RRR	r0x1025
                                           	RRR	r0x1026
                                           	RRR	r0x1027
                                           	ADDAI	0x01
                                           	JBSET	PFLAG,0
                                           	GOTO	_00139_DS_
                                           _00140_DS_
                                           	JBSET	r0x1027,0
                                           	GOTO	_00117_DS_
                                           ;	.line	50; "MC32P7311.c"	P10D = 1;
                                           	BSET	_IOP1bits,0
                                           ;	.line	51; "MC32P7311.c"	delay_ms(6); //
                                           	MOVAI	0x06
                                           	MOVRA	STK02
                                           	MOVAI	0x00
                                           	MOVRA	STK01
                                           	MOVAI	0x00
                                           	MOVRA	STK00
                                           	MOVAI	0x00
                                           	CALL	_delay_ms
                                           ;	.line	53; "MC32P7311.c"	P10D = 0;
                                           	BCLR	_IOP1bits,0
                                           ;	.line	54; "MC32P7311.c"	delay_ms(17); //
                                           	MOVAI	0x11
                                           	MOVRA	STK02
                                           	MOVAI	0x00
                                           	MOVRA	STK01
                                           	MOVAI	0x00
                                           	MOVRA	STK00
                                           	MOVAI	0x00
                                           	CALL	_delay_ms
                                           	GOTO	_00122_DS_
                                           _00117_DS_
                                           ;	.line	60; "MC32P7311.c"	P10D = 1;
                                           	BSET	_IOP1bits,0
                                           ;	.line	61; "MC32P7311.c"	delay_ms(6); //
                                           	MOVAI	0x06
                                           	MOVRA	STK02
                                           	MOVAI	0x00
                                           	MOVRA	STK01
                                           	MOVAI	0x00
                                           	MOVRA	STK00
                                           	MOVAI	0x00
                                           	CALL	_delay_ms
                                           ;	.line	63; "MC32P7311.c"	P10D = 0;
                                           	BCLR	_IOP1bits,0
                                           ;	.line	64; "MC32P7311.c"	delay_ms(6); //
                                           	MOVAI	0x06
                                           	MOVRA	STK02
                                           	MOVAI	0x00
                                           	MOVRA	STK01
                                           	MOVAI	0x00
                                           	MOVRA	STK00
                                           	MOVAI	0x00
                                           	CALL	_delay_ms
                                           _00122_DS_
                                           ;	.line	44; "MC32P7311.c"	for (u8 i = 0; i < 32; i++)
                                           	INCR	r0x1023
                                           	GOTO	_00121_DS_
                                           _00119_DS_
                                           ;	.line	70; "MC32P7311.c"	P10D = 0;
                                           	BCLR	_IOP1bits,0
                                           ;	.line	71; "MC32P7311.c"	}
                                           	RETURN	
                                           ; exit point of _send_32bits_data_by_irsir
                                           
                                           ;***
                                           ;  pBlock Stats: dbName = C
                                           ;***
                                           ;entry:  _delay_ms	;Function start
                                           ; 2 exit points
                                           ;has an exit
                                           ;15 compiler assigned registers:
                                           ;   r0x100E
                                           ;   STK00
                                           ;   r0x100F
                                           ;   STK01
                                           ;   r0x1010
                                           ;   STK02
                                           ;   r0x1011
                                           ;   r0x1012
                                           ;   r0x1013
                                           ;   r0x1014
                                           ;   r0x1015
                                           ;   r0x1016
                                           ;   r0x1017
                                           ;   r0x1018
                                           ;   r0x1019
                                           ;; Starting pCode block
                                           _delay_ms	;Function start
                                           ; 2 exit points
                                           ;	.line	15; "MC32P7311.c"	void delay_ms(u32 xms)
                                           	MOVRA	r0x100E
                                           	MOVAR	STK00
                                           	MOVRA	r0x100F
                                           	MOVAR	STK01
                                           	MOVRA	r0x1010
                                           	MOVAR	STK02
                                           	MOVRA	r0x1011
                                           _00108_DS_
                                           ;	.line	17; "MC32P7311.c"	while (xms)
                                           	MOVAR	r0x1011
                                           	ORAR	r0x1010
                                           	ORAR	r0x100F
                                           	ORAR	r0x100E
                                           	JBCLR	PFLAG,2
                                           	GOTO	_00111_DS_
                                           ;	.line	20; "MC32P7311.c"	while (i--)
                                           	MOVAI	0x1f
                                           	MOVRA	r0x1012
                                           	MOVAI	0x01
                                           	MOVRA	r0x1013
                                           	CLRR	r0x1014
                                           	CLRR	r0x1015
                                           _00105_DS_
                                           	MOVAR	r0x1012
                                           	MOVRA	r0x1016
                                           	MOVAR	r0x1013
                                           	MOVRA	r0x1017
                                           	MOVAR	r0x1014
                                           	MOVRA	r0x1018
                                           	MOVAR	r0x1015
                                           	MOVRA	r0x1019
                                           	MOVAI	0xff
                                           	ADDRA	r0x1012
                                           	MOVAI	0xff
                                           	JBSET	PFLAG,0
                                           	ADDRA	r0x1013
                                           	MOVAI	0xff
                                           	JBSET	PFLAG,0
                                           	ADDRA	r0x1014
                                           	MOVAI	0xff
                                           	JBSET	PFLAG,0
                                           	ADDRA	r0x1015
                                           	MOVAR	r0x1016
                                           	ORAR	r0x1017
                                           	ORAR	r0x1018
                                           	ORAR	r0x1019
                                           	JBCLR	PFLAG,2
                                           	GOTO	_00107_DS_
                                           ;	.line	22; "MC32P7311.c"	Nop();
                                           	nop	
                                           	GOTO	_00105_DS_
                                           _00107_DS_
                                           ;	.line	27; "MC32P7311.c"	__endasm;
                                           	;
                                           	CLRWDT;
                                           	
                                           ;	.line	28; "MC32P7311.c"	xms--;
                                           	MOVAI	0xff
                                           	ADDRA	r0x1011
                                           	MOVAI	0xff
                                           	JBSET	PFLAG,0
                                           	ADDRA	r0x1010
                                           	MOVAI	0xff
                                           	JBSET	PFLAG,0
                                           	ADDRA	r0x100F
                                           	MOVAI	0xff
                                           	JBSET	PFLAG,0
                                           	ADDRA	r0x100E
                                           	GOTO	_00108_DS_
                                           _00111_DS_
                                           ;	.line	30; "MC32P7311.c"	}
                                           	RETURN	
                                           ; exit point of _delay_ms
                                           
                                           
                                           ;	code size estimation:
                                           ;	  846+    0 =   846 instructions ( 1692 byte)
                                           
                                           	end


MEMORY USAGE MAP ('X' = Used,  '-' = Unused)

0000 : XXXXXXXX-------- XXXXXXXXXXXXXXXX XXXXXXXXXXXXXXXX XXXXXXXXXXXXXXXX
0040 : XXXXXXXXXXXXXXXX XXXXXXXXXXXXXXXX XXXXXXXXXXXXXXXX XXXXXXXXXXXXXXXX
0080 : XXXXXXXXXXXXXXXX XXXXXXXXXXXXXXXX XXXXXXXXXXXXXXXX XXXXXXXXXXXXXXXX
00C0 : XXXXXXXXXXXXXXXX XXXXXXXXXXXXXXXX XXXXXXXXXXXXXXXX XXXXXXXXXXXXXXXX
0100 : XXXXXXXXXXXXXXXX XXXXXXXXXXXXXXXX XXXXXXXXXXXXXXXX XXXXXXXXXXXXXXXX
0140 : XXXXXXXXXXXXXXXX XXXXXXXXXXXXXXXX XXXXXXXXXXXXXXXX XXXXXXXXXXXXXXXX
0180 : XXXXXXXXXXXXXXXX XXXXXXXXXXXXXXXX XXXXXXXXXXXXXXXX XXXXXXXXXXXXXXXX
01C0 : XXXXXXXXXXXXXXXX XXXXXXXXXXXXXXXX XXXXXXXXXXXXXXXX XXXXXXXXXXXXXXXX
0200 : XXXXXXXXXXXXXXXX XXXXXXXXXXXXXXXX XXXXXXXXXXXXXXXX XXXXXXXXXXXXXXXX
0240 : XXXXXXXXXXXXXXXX XXXXXXXXXXXXXXXX XXXXXXXXXXXXXXXX XXXXXXXXXXXXXXXX
0280 : XXXXXXXXXXXXXXXX XXXXXXXXXXXXXXXX XXXXXXXXXXXXXXXX XXXXXXXXXXXXXXXX
02C0 : XXXXXXXXXXXXXXXX XXXXXXXXXXXXXXXX XXXXXXXXXXXXXXXX XXXXXXXXXXXXXXXX
0300 : XXXXXXXXXXXXXXXX XXXXXXXXXXXXXXXX XXXXXXXXXXXXXXXX XXXXXXXXXXXXXXXX
0340 : XXXXXXXXXXXXXXXX XXXXXXXXXXXXXXXX XXXXXXXXXXXXXXXX XXXXXXXXXXXXXXXX
0380 : XXXXXXXXXXXXXXXX XXXXXXXXXXXXXXXX XXXXXXXXXXXXXXXX XXXXXXXXXXXXXXXX
03C0 : XXXXXXXXXXXXXXXX XXXXXXXXXXXXXXXX XXXXXXXXXXXXXXXX XXXXXXXXXXXXXXXX
0400 : XXXXXXXXXXXXXXXX XXXXXXXXXXXXXXXX XXXXXXXXXXXXXXXX XXXXXXXXXXXXXXXX
0440 : XXXXXXXXXXXXXXXX XXXXXXXXXXXXXXXX XXXXXXXXXXXXXXXX XXXXXXXXXXXXXXXX
0480 : XXXXXXXXXXXXXXXX XXXXXXXXXXXXXXXX XXXXXXXXXXXXXXXX XXXXXXXXXXXXXXXX
04C0 : XXXXXXXXXXXXXXXX XXXXXXXXXXXXXXXX XXXXXXXXXXXXXXXX XXXXXXXXXXXXXXXX
0500 : XXXXXXXXXXXXXXXX XXXXXXXXXXXXXXXX XXXXXXXXXXXXXXXX XXXXXXXXXXXXXXXX
0540 : XXXXXXXXXXXXXXXX XXXXXXXXXXXXXXXX XXXXXXXXXXXXXXXX XXXXXXXXXXXXXXXX
0580 : XXXXXXXXXXXXXXXX XXXXXXXXXXXXXXXX XXXXXXXXXXXXXXXX XXXXXXXXXXXXXXXX
05C0 : XXXXXXXXXXXXXXXX XXXXXXXXXXXXXXXX XXXXXXXXXXXXXXXX XXXXXXXXXXXXXXXX
0600 : XXXXXXXXXXXXXXXX XXXXXXXXXXXXXXXX XXXXXXXXXXXXXXXX XXXXXXXXXXXXXXXX
0640 : XXXXXXXXXXXXXXXX XXXXXXXXXXXXXXXX XXXXXXXXXXXXXXXX XXXXXXXXXXXXXXXX
0680 : XXXXXXXXXXXXXXXX XXXXXXXXXXXXXXXX XXXXXXXXXXXXXXXX XXXXXXXXXXXXXXXX
06C0 : XXXXXXXXXXXXXXXX ---------------- ---------------- ----------------

All other memory blocks unused.

Program Memory Words Used:   868

