gplink-2.2.37 (Jan 22 2024)
Listing File Generated: 2024-9-20  17:22:15
 
 
Address  Value    Disassembly              Source
-------  -----    -----------              ------
                                           ;--------------------------------------------------------
                                           ; external declarations
                                           ;--------------------------------------------------------
                                           	extern	_INDF0bits
                                           	extern	_INDF1bits
                                           	extern	_INDF2bits
                                           	extern	_HIBYTEbits
                                           	extern	_FSR0bits
                                           	extern	_FSR1bits
                                           	extern	_PCLbits
                                           	extern	_PFLAGbits
                                           	extern	_MCRbits
                                           	extern	_INDF3bits
                                           	extern	_INTEbits
                                           	extern	_INTFbits
                                           	extern	_DRVCRbits
                                           	extern	_KBCRbits
                                           	extern	_IOP0bits
                                           	extern	_OEP0bits
                                           	extern	_PUP0bits
                                           	extern	_PDP0bits
                                           	extern	_IOP1bits
                                           	extern	_OEP1bits
                                           	extern	_PUP1bits
                                           	extern	_PDP1bits
                                           	extern	_T0CRbits
                                           	extern	_T0CNTbits
                                           	extern	_T0LOADbits
                                           	extern	_T0DATAbits
                                           	extern	_T1CRbits
                                           	extern	_T1CNTbits
                                           	extern	_T1LOADbits
                                           	extern	_T1DATAbits
                                           	extern	_T2CRbits
                                           	extern	_T2CNTbits
                                           	extern	_T2LOADbits
                                           	extern	_T2DATAbits
                                           	extern	_T3CRbits
                                           	extern	_T3CNTbits
                                           	extern	_T3LOADbits
                                           	extern	_PWM0DEbits
                                           	extern	_PWM1DEbits
                                           	extern	_PWM2DEbits
                                           	extern	_PWMCR0bits
                                           	extern	_PWMCR1bits
                                           	extern	_OSCMbits
                                           	extern	_LVDCRbits
                                           	extern	_ADCR0bits
                                           	extern	_ADCR1bits
                                           	extern	_ADCR2bits
                                           	extern	_ADRHbits
                                           	extern	_ADRLbits
                                           	extern	_ANSEL0bits
                                           	extern	_ANSEL1bits
                                           	extern	_OSCCALHbits
                                           	extern	_OSCCALLbits
                                           	extern	_INDF0
                                           	extern	_INDF1
                                           	extern	_INDF2
                                           	extern	_HIBYTE
                                           	extern	_FSR0
                                           	extern	_FSR1
                                           	extern	_PCL
                                           	extern	_PFLAG
                                           	extern	_MCR
                                           	extern	_INDF3
                                           	extern	_INTE
                                           	extern	_INTF
                                           	extern	_DRVCR
                                           	extern	_KBCR
                                           	extern	_IOP0
                                           	extern	_OEP0
                                           	extern	_PUP0
                                           	extern	_PDP0
                                           	extern	_IOP1
                                           	extern	_OEP1
                                           	extern	_PUP1
                                           	extern	_PDP1
                                           	extern	_T0CR
                                           	extern	_T0CNT
                                           	extern	_T0LOAD
                                           	extern	_T0DATA
                                           	extern	_T1CR
                                           	extern	_T1CNT
                                           	extern	_T1LOAD
                                           	extern	_T1DATA
                                           	extern	_T2CR
                                           	extern	_T2CNT
                                           	extern	_T2LOAD
                                           	extern	_T2DATA
                                           	extern	_T3CR
                                           	extern	_T3CNT
                                           	extern	_T3LOAD
                                           	extern	_PWM0DE
                                           	extern	_PWM1DE
                                           	extern	_PWM2DE
                                           	extern	_PWMCR0
                                           	extern	_PWMCR1
                                           	extern	_OSCM
                                           	extern	_LVDCR
                                           	extern	_ADCR0
                                           	extern	_ADCR1
                                           	extern	_ADCR2
                                           	extern	_ADRH
                                           	extern	_ADRL
                                           	extern	_ANSEL0
                                           	extern	_ANSEL1
                                           	extern	_OSCCALH
                                           	extern	_OSCCALL
                                           ;--------------------------------------------------------
                                           ; global declarations
                                           ;--------------------------------------------------------
                                           	global	_Sys_Init
                                           	global	_IO_Init
                                           	global	_CLR_RAM
                                           	global	_delay_ms
                                           	global	_send_32bits_data_by_irsir
                                           	global	_timer0_pwm_config
                                           	global	_timer1_pwm_config
                                           	global	_timer1_pwm_open
                                           	global	_timer1_pwm_close
                                           	global	_timer2_pwm_config
                                           	global	_key_config
                                           	global	_adc_config
                                           	global	_adc_sel_pin
                                           	global	_adc_get_val
                                           	global	_key_scan
                                           	global	_key_handle
                                           	global	_main
                                           	global	_int_isr
                                           	global	_mode_flag
                                           	global	_key_press_flag
                                           	global	_i
                                           	global	_adc_val
                                           	global	_time_ms_cnt
                                           	global	_abuf
                                           	global	_statusbuf
                                           	global	_flag1
                                           	global	_charge_buf
                                           	global	_battery_refer_vol_buf
                                           
                                           	global STK06
                                           	global STK05
                                           	global STK04
                                           	global STK03
                                           	global STK02
                                           	global STK01
                                           	global STK00
                                           
                                           sharebank udata_ovr 0x0000
                                           STK06	res 1
                                           STK05	res 1
                                           STK04	res 1
                                           STK03	res 1
                                           STK02	res 1
                                           STK01	res 1
                                           STK00	res 1
                                           
                                           ;--------------------------------------------------------
                                           ; global definitions
                                           ;--------------------------------------------------------
                                           UD_MC32P7311_0	udata
                                           _mode_flag	res	1
                                           
                                           UD_MC32P7311_1	udata
                                           _key_press_flag	res	1
                                           
                                           UD_MC32P7311_2	udata
                                           _i	res	1
                                           
                                           UD_MC32P7311_3	udata
                                           _adc_val	res	2
                                           
                                           UD_MC32P7311_4	udata
                                           _time_ms_cnt	res	4
                                           
                                           UD_MC32P7311_5	udata
                                           _abuf	res	1
                                           
                                           UD_MC32P7311_6	udata
                                           _statusbuf	res	1
                                           
                                           UD_MC32P7311_7	udata
                                           _flag1	res	1
                                           
                                           ;--------------------------------------------------------
                                           ; absolute symbol definitions
                                           ;--------------------------------------------------------
                                           ;--------------------------------------------------------
                                           ; compiler-defined variables
                                           ;--------------------------------------------------------
                                           UDL_MC32P7311_0	udata
                                           r0x1007	res	1
                                           r0x1006	res	1
                                           r0x1005	res	1
                                           r0x1004	res	1
                                           r0x1008	res	1
                                           r0x1009	res	1
                                           r0x100A	res	1
                                           r0x100B	res	1
                                           r0x100C	res	1
                                           r0x100D	res	1
                                           r0x100E	res	1
                                           r0x100F	res	1
                                           r0x1021	res	1
                                           r0x1020	res	1
                                           r0x101F	res	1
                                           r0x101E	res	1
                                           r0x1022	res	1
                                           r0x1026	res	1
                                           r0x1025	res	1
                                           r0x1024	res	1
                                           r0x1023	res	1
                                           r0x1011	res	1
                                           r0x1012	res	1
                                           r0x1013	res	1
                                           r0x1014	res	1
                                           r0x1015	res	1
                                           r0x1016	res	1
                                           r0x1017	res	1
                                           r0x1018	res	1
                                           r0x1019	res	1
                                           r0x101B	res	1
                                           r0x101A	res	1
                                           r0x1010	res	1
                                           ;--------------------------------------------------------
                                           ; initialized data
                                           ;--------------------------------------------------------
                                           
                                           ID_MC32P7311_0	code
                                           _charge_buf
000001   002b     dw      0x2b             	dw 0x2b
000002   0000     nop                      	dw 0x00
                                           
                                           
                                           ID_MC32P7311_1	code
                                           _battery_refer_vol_buf
000003   0000     nop                      	dw 0x00
                                           
                                           
                                           ;@Allocation info for local variables in function 'delay_ms'
                                           ;@delay_ms Sys_Init                  Allocated to registers ;size:2
                                           ;@delay_ms CLR_RAM                   Allocated to registers ;size:2
                                           ;@delay_ms IO_Init                   Allocated to registers ;size:2
                                           ;@delay_ms delay_ms                  Allocated to registers ;size:2
                                           ;@delay_ms INDF0bits                 Allocated to registers ;size:1
                                           ;@delay_ms INDF1bits                 Allocated to registers ;size:1
                                           ;@delay_ms INDF2bits                 Allocated to registers ;size:1
                                           ;@delay_ms HIBYTEbits                Allocated to registers ;size:1
                                           ;@delay_ms FSR0bits                  Allocated to registers ;size:1
                                           ;@delay_ms FSR1bits                  Allocated to registers ;size:1
                                           ;@delay_ms PCLbits                   Allocated to registers ;size:1
                                           ;@delay_ms PFLAGbits                 Allocated to registers ;size:1
                                           ;@delay_ms MCRbits                   Allocated to registers ;size:1
                                           ;@delay_ms INDF3bits                 Allocated to registers ;size:1
                                           ;@delay_ms INTEbits                  Allocated to registers ;size:1
                                           ;@delay_ms INTFbits                  Allocated to registers ;size:1
                                           ;@delay_ms DRVCRbits                 Allocated to registers ;size:1
                                           ;@delay_ms KBCRbits                  Allocated to registers ;size:1
                                           ;@delay_ms IOP0bits                  Allocated to registers ;size:1
                                           ;@delay_ms OEP0bits                  Allocated to registers ;size:1
                                           ;@delay_ms PUP0bits                  Allocated to registers ;size:1
                                           ;@delay_ms PDP0bits                  Allocated to registers ;size:1
                                           ;@delay_ms IOP1bits                  Allocated to registers ;size:1
                                           ;@delay_ms OEP1bits                  Allocated to registers ;size:1
                                           ;@delay_ms PUP1bits                  Allocated to registers ;size:1
                                           ;@delay_ms PDP1bits                  Allocated to registers ;size:1
                                           ;@delay_ms T0CRbits                  Allocated to registers ;size:1
                                           ;@delay_ms T0CNTbits                 Allocated to registers ;size:1
                                           ;@delay_ms T0LOADbits                Allocated to registers ;size:1
                                           ;@delay_ms T0DATAbits                Allocated to registers ;size:1
                                           ;@delay_ms T1CRbits                  Allocated to registers ;size:1
                                           ;@delay_ms T1CNTbits                 Allocated to registers ;size:1
                                           ;@delay_ms T1LOADbits                Allocated to registers ;size:1
                                           ;@delay_ms T1DATAbits                Allocated to registers ;size:1
                                           ;@delay_ms T2CRbits                  Allocated to registers ;size:1
                                           ;@delay_ms T2CNTbits                 Allocated to registers ;size:1
                                           ;@delay_ms T2LOADbits                Allocated to registers ;size:1
                                           ;@delay_ms T2DATAbits                Allocated to registers ;size:1
                                           ;@delay_ms T3CRbits                  Allocated to registers ;size:1
                                           ;@delay_ms T3CNTbits                 Allocated to registers ;size:1
                                           ;@delay_ms T3LOADbits                Allocated to registers ;size:1
                                           ;@delay_ms PWM0DEbits                Allocated to registers ;size:1
                                           ;@delay_ms PWM1DEbits                Allocated to registers ;size:1
                                           ;@delay_ms PWM2DEbits                Allocated to registers ;size:1
                                           ;@delay_ms PWMCR0bits                Allocated to registers ;size:1
                                           ;@delay_ms PWMCR1bits                Allocated to registers ;size:1
                                           ;@delay_ms OSCMbits                  Allocated to registers ;size:1
                                           ;@delay_ms LVDCRbits                 Allocated to registers ;size:1
                                           ;@delay_ms ADCR0bits                 Allocated to registers ;size:1
                                           ;@delay_ms ADCR1bits                 Allocated to registers ;size:1
                                           ;@delay_ms ADCR2bits                 Allocated to registers ;size:1
                                           ;@delay_ms ADRHbits                  Allocated to registers ;size:1
                                           ;@delay_ms ADRLbits                  Allocated to registers ;size:1
                                           ;@delay_ms ANSEL0bits                Allocated to registers ;size:1
                                           ;@delay_ms ANSEL1bits                Allocated to registers ;size:1
                                           ;@delay_ms OSCCALHbits               Allocated to registers ;size:1
                                           ;@delay_ms OSCCALLbits               Allocated to registers ;size:1
                                           ;@delay_ms mode_flag                 Allocated to registers ;size:1
                                           ;@delay_ms key_press_flag            Allocated to registers ;size:1
                                           ;@delay_ms i                         Allocated to registers ;size:1
                                           ;@delay_ms adc_val                   Allocated to registers ;size:2
                                           ;@delay_ms time_ms_cnt               Allocated to registers ;size:4
                                           ;@delay_ms abuf                      Allocated to registers ;size:1
                                           ;@delay_ms statusbuf                 Allocated to registers ;size:1
                                           ;@delay_ms flag1                     Allocated to registers ;size:1
                                           ;@delay_ms xms                       Allocated to registers ;size:4
                                           ;@delay_ms i                         Allocated to registers r0x1008 r0x1009 r0x100A r0x100B ;size:4
                                           ;@delay_ms INDF0                     Allocated to registers ;size:1
                                           ;@delay_ms INDF1                     Allocated to registers ;size:1
                                           ;@delay_ms INDF2                     Allocated to registers ;size:1
                                           ;@delay_ms HIBYTE                    Allocated to registers ;size:1
                                           ;@delay_ms FSR0                      Allocated to registers ;size:1
                                           ;@delay_ms FSR1                      Allocated to registers ;size:1
                                           ;@delay_ms PCL                       Allocated to registers ;size:1
                                           ;@delay_ms PFLAG                     Allocated to registers ;size:1
                                           ;@delay_ms MCR                       Allocated to registers ;size:1
                                           ;@delay_ms INDF3                     Allocated to registers ;size:1
                                           ;@delay_ms INTE                      Allocated to registers ;size:1
                                           ;@delay_ms INTF                      Allocated to registers ;size:1
                                           ;@delay_ms DRVCR                     Allocated to registers ;size:1
                                           ;@delay_ms KBCR                      Allocated to registers ;size:1
                                           ;@delay_ms IOP0                      Allocated to registers ;size:1
                                           ;@delay_ms OEP0                      Allocated to registers ;size:1
                                           ;@delay_ms PUP0                      Allocated to registers ;size:1
                                           ;@delay_ms PDP0                      Allocated to registers ;size:1
                                           ;@delay_ms IOP1                      Allocated to registers ;size:1
                                           ;@delay_ms OEP1                      Allocated to registers ;size:1
                                           ;@delay_ms PUP1                      Allocated to registers ;size:1
                                           ;@delay_ms PDP1                      Allocated to registers ;size:1
                                           ;@delay_ms T0CR                      Allocated to registers ;size:1
                                           ;@delay_ms T0CNT                     Allocated to registers ;size:1
                                           ;@delay_ms T0LOAD                    Allocated to registers ;size:1
                                           ;@delay_ms T0DATA                    Allocated to registers ;size:1
                                           ;@delay_ms T1CR                      Allocated to registers ;size:1
                                           ;@delay_ms T1CNT                     Allocated to registers ;size:1
                                           ;@delay_ms T1LOAD                    Allocated to registers ;size:1
                                           ;@delay_ms T1DATA                    Allocated to registers ;size:1
                                           ;@delay_ms T2CR                      Allocated to registers ;size:1
                                           ;@delay_ms T2CNT                     Allocated to registers ;size:1
                                           ;@delay_ms T2LOAD                    Allocated to registers ;size:1
                                           ;@delay_ms T2DATA                    Allocated to registers ;size:1
                                           ;@delay_ms T3CR                      Allocated to registers ;size:1
                                           ;@delay_ms T3CNT                     Allocated to registers ;size:1
                                           ;@delay_ms T3LOAD                    Allocated to registers ;size:1
                                           ;@delay_ms PWM0DE                    Allocated to registers ;size:1
                                           ;@delay_ms PWM1DE                    Allocated to registers ;size:1
                                           ;@delay_ms PWM2DE                    Allocated to registers ;size:1
                                           ;@delay_ms PWMCR0                    Allocated to registers ;size:1
                                           ;@delay_ms PWMCR1                    Allocated to registers ;size:1
                                           ;@delay_ms OSCM                      Allocated to registers ;size:1
                                           ;@delay_ms LVDCR                     Allocated to registers ;size:1
                                           ;@delay_ms ADCR0                     Allocated to registers ;size:1
                                           ;@delay_ms ADCR1                     Allocated to registers ;size:1
                                           ;@delay_ms ADCR2                     Allocated to registers ;size:1
                                           ;@delay_ms ADRH                      Allocated to registers ;size:1
                                           ;@delay_ms ADRL                      Allocated to registers ;size:1
                                           ;@delay_ms ANSEL0                    Allocated to registers ;size:1
                                           ;@delay_ms ANSEL1                    Allocated to registers ;size:1
                                           ;@delay_ms OSCCALH                   Allocated to registers ;size:1
                                           ;@delay_ms OSCCALL                   Allocated to registers ;size:1
                                           ;@end Allocation info for local variables in function 'delay_ms';
                                           ;@Allocation info for local variables in function 'send_32bits_data_by_irsir'
                                           ;@send_32bits_data_by_irsir send_data                 Allocated to registers r0x1021 r0x1020 r0x101F r0x101E ;size:4
                                           ;@send_32bits_data_by_irsir i                         Allocated to registers r0x1022 ;size:1
                                           ;@end Allocation info for local variables in function 'send_32bits_data_by_irsir';
                                           ;@Allocation info for local variables in function 'CLR_RAM'
                                           ;@end Allocation info for local variables in function 'CLR_RAM';
                                           ;@Allocation info for local variables in function 'IO_Init'
                                           ;@end Allocation info for local variables in function 'IO_Init';
                                           ;@Allocation info for local variables in function 'timer0_pwm_config'
                                           ;@end Allocation info for local variables in function 'timer0_pwm_config';
                                           ;@Allocation info for local variables in function 'timer1_pwm_config'
                                           ;@end Allocation info for local variables in function 'timer1_pwm_config';
                                           ;@Allocation info for local variables in function 'timer1_pwm_open'
                                           ;@end Allocation info for local variables in function 'timer1_pwm_open';
                                           ;@Allocation info for local variables in function 'timer1_pwm_close'
                                           ;@end Allocation info for local variables in function 'timer1_pwm_close';
                                           ;@Allocation info for local variables in function 'timer2_pwm_config'
                                           ;@end Allocation info for local variables in function 'timer2_pwm_config';
                                           ;@Allocation info for local variables in function 'key_config'
                                           ;@end Allocation info for local variables in function 'key_config';
                                           ;@Allocation info for local variables in function 'adc_config'
                                           ;@end Allocation info for local variables in function 'adc_config';
                                           ;@Allocation info for local variables in function 'adc_sel_pin'
                                           ;@adc_sel_pin adc_pin                   Allocated to registers ;size:1
                                           ;@end Allocation info for local variables in function 'adc_sel_pin';
                                           ;@Allocation info for local variables in function 'adc_get_val'
                                           ;@adc_get_val cnt                       Allocated to registers r0x1017 ;size:1
                                           ;@adc_get_val g_temp_value              Allocated to registers r0x1018 r0x1019 ;size:2
                                           ;@adc_get_val g_tmpbuff                 Allocated to registers r0x1013 r0x1014 ;size:2
                                           ;@adc_get_val g_adcmax                  Allocated to registers r0x1013 r0x1014 ;size:2
                                           ;@adc_get_val g_adcmin                  Allocated to registers r0x1015 r0x1016 ;size:2
                                           ;@end Allocation info for local variables in function 'adc_get_val';
                                           ;@Allocation info for local variables in function 'Sys_Init'
                                           ;@end Allocation info for local variables in function 'Sys_Init';
                                           ;@Allocation info for local variables in function 'key_scan'
                                           ;@key_scan cnt                       Allocated to registers r0x1010 ;size:1
                                           ;@end Allocation info for local variables in function 'key_scan';
                                           ;@Allocation info for local variables in function 'key_handle'
                                           ;@end Allocation info for local variables in function 'key_handle';
                                           ;@Allocation info for local variables in function 'main'
                                           ;@end Allocation info for local variables in function 'main';
                                           ;@Allocation info for local variables in function 'int_isr'
                                           ;@end Allocation info for local variables in function 'int_isr';
                                           
                                           ;--------------------------------------------------------
                                           ; overlayable items in internal ram 
                                           ;--------------------------------------------------------
                                           ;	udata_ovr
                                           ;--------------------------------------------------------
                                           ; reset vector 
                                           ;--------------------------------------------------------
                                           STARTUP	code 0x0000
000000   a010     goto    0x10             	goto	_main
                                           ;--------------------------------------------------------
                                           ; interrupt and initialization code
                                           ;--------------------------------------------------------
                                           c_interrupt	code	0x8
                                           __sdcc_interrupt
                                           ;***
                                           ;  pBlock Stats: dbName = I
                                           ;***
                                           ;entry:  _int_isr	;Function start
                                           ; 0 exit points
                                           ;; Starting pCode block
                                           _int_isr	;Function start
                                           ; 0 exit points
                                           ;	.line	527; "MC32P7311.c"	__endasm;
                                           	;
000008   5631     movra   0x31             	movra	_abuf;
000009   4587     swapar  0x187            	swapar	_PFLAG;
00000a   5632     movra   0x32             	movra	_statusbuf;
                                           	
                                           ;	.line	574; "MC32P7311.c"	__endasm;
                                           	;
00000b   4432     swapar  0x32             	swapar	_statusbuf;
00000c   5787     movra   0x187            	movra	_PFLAG;
00000d   4631     swapr   0x31             	swapr	_abuf;
00000e   4431     swapar  0x31             	swapar	_abuf;
                                           	
                                           END_OF_INTERRUPT
                                           ;	.line	575; "MC32P7311.c"	}
00000f   000d     retie                    	RETIE	
                                           
                                           ;--------------------------------------------------------
                                           ; code
                                           ;--------------------------------------------------------
                                           code_MC32P7311	code
                                           ;***
                                           ;  pBlock Stats: dbName = M
                                           ;***
                                           ;entry:  _main	;Function start
                                           ; 2 exit points
                                           ;has an exit
                                           ;functions called:
                                           ;   _Sys_Init
                                           ;   _key_scan
                                           ;   _key_handle
                                           ;   _Sys_Init
                                           ;   _key_scan
                                           ;   _key_handle
                                           ;; Starting pCode block
                                           _main	;Function start
                                           ; 2 exit points
                                           ;	.line	495; "MC32P7311.c"	Sys_Init();
000010   80c1     call    0xc1             	CALL	_Sys_Init
                                           _00341_DS_
                                           ;	.line	512; "MC32P7311.c"	key_scan();
000011   8067     call    0x67             	CALL	_key_scan
                                           ;	.line	513; "MC32P7311.c"	key_handle();
000012   8016     call    0x16             	CALL	_key_handle
                                           ;	.line	517; "MC32P7311.c"	__endasm;
                                           	;
000013   000e     clrwdt                   	CLRWDT;
                                           	
000014   a011     goto    0x11             	GOTO	_00341_DS_
                                           ;	.line	519; "MC32P7311.c"	}
000015   000c     return                   	RETURN	
                                           ; exit point of _main
                                           
                                           ;***
                                           ;  pBlock Stats: dbName = C
                                           ;***
                                           ;entry:  _key_handle	;Function start
                                           ; 2 exit points
                                           ;has an exit
                                           ;1 compiler assigned register :
                                           ;   r0x1004
                                           ;; Starting pCode block
                                           _key_handle	;Function start
                                           ; 2 exit points
                                           ;	.line	398; "MC32P7311.c"	if (key_press_flag)
000016   3c00     movai   0                	MOVAI	0x00
000017   5c2f     orar    0x2f             	ORAR	_key_press_flag
000018   f587     jbclr   0x187, 0x2       	JBCLR	PFLAG,2
000019   a066     goto    0x66             	GOTO	_00335_DS_
                                           ;	.line	401; "MC32P7311.c"	switch (key_press_flag)
00001a   582f     movar   0x2f             	MOVAR	_key_press_flag
00001b   560a     movra   0xa              	MOVRA	r0x1004
                                           ;;unsigned compare: left < lit(0x1=1), size=1
00001c   3c01     movai   0x1              	MOVAI	0x01
00001d   480a     rsubar  0xa              	RSUBAR	r0x1004
00001e   e187     jbset   0x187, 0         	JBSET	PFLAG,0
00001f   a065     goto    0x65             	GOTO	_00332_DS_
                                           ;;genSkipc:3291: created from rifx:013B5EFC
                                           ;;swapping arguments (AOP_TYPEs 1/2)
                                           ;;unsigned compare: left >= lit(0x4=4), size=1
000020   3c04     movai   0x4              	MOVAI	0x04
000021   480a     rsubar  0xa              	RSUBAR	r0x1004
000022   f187     jbclr   0x187, 0         	JBCLR	PFLAG,0
000023   a065     goto    0x65             	GOTO	_00332_DS_
                                           ;;genSkipc:3291: created from rifx:013B5EFC
000024   6e0a     decr    0xa              	DECR	r0x1004
000025   580a     movar   0xa              	MOVAR	r0x1004
000026   7f86     addra   0x186            	ADDRA	PCL
000027   a02a     goto    0x2a             	GOTO	_00295_DS_
000028   a034     goto    0x34             	GOTO	_00307_DS_
000029   a056     goto    0x56             	GOTO	_00318_DS_
                                           _00295_DS_
                                           ;	.line	404; "MC32P7311.c"	if (FLAG_IS_DEVICE_OPEN)
00002a   e033     jbset   0x33, 0          	JBSET	_flag1,0
00002b   a065     goto    0x65             	GOTO	_00332_DS_
                                           ;	.line	407; "MC32P7311.c"	if (0 == FLAG_IS_HEATING)
00002c   f233     jbclr   0x33, 0x1        	JBCLR	_flag1,1
00002d   a031     goto    0x31             	GOTO	_00299_DS_
                                           ;	.line	409; "MC32P7311.c"	HEATING_ON(); // 打开加热
00002e   c594     bset    0x194, 0x2       	BSET	_IOP1bits,2
                                           ;	.line	410; "MC32P7311.c"	FLAG_IS_HEATING = 1;
00002f   c233     bset    0x33, 0x1        	BSET	_flag1,1
000030   a065     goto    0x65             	GOTO	_00332_DS_
                                           _00299_DS_
                                           ;	.line	414; "MC32P7311.c"	HEATING_OFF(); // 关闭加热
000031   d594     bclr    0x194, 0x2       	BCLR	_IOP1bits,2
                                           ;	.line	415; "MC32P7311.c"	FLAG_IS_HEATING = 0;
000032   d233     bclr    0x33, 0x1        	BCLR	_flag1,1
                                           ;	.line	418; "MC32P7311.c"	break;
000033   a065     goto    0x65             	GOTO	_00332_DS_
                                           _00307_DS_
                                           ;	.line	422; "MC32P7311.c"	if (FLAG_IS_DEVICE_OPEN)
000034   e033     jbset   0x33, 0          	JBSET	_flag1,0
000035   a065     goto    0x65             	GOTO	_00332_DS_
                                           ;	.line	425; "MC32P7311.c"	if (MODE_1 == mode_flag)
000036   3c00     movai   0                	MOVAI	0x00
000037   5c2e     orar    0x2e             	ORAR	_mode_flag
000038   e587     jbset   0x187, 0x2       	JBSET	PFLAG,2
000039   a041     goto    0x41             	GOTO	_00314_DS_
                                           ;	.line	428; "MC32P7311.c"	T0DATA = 255;
00003a   3cff     movai   0xff             	MOVAI	0xff
00003b   579b     movra   0x19b            	MOVRA	_T0DATA
                                           ;	.line	429; "MC32P7311.c"	T1DATA = 255; // 100%占空比（确保大于TxLOAD的值就可以）
00003c   3cff     movai   0xff             	MOVAI	0xff
00003d   579f     movra   0x19f            	MOVRA	_T1DATA
                                           ;	.line	431; "MC32P7311.c"	mode_flag = MODE_2;
00003e   3c01     movai   0x1              	MOVAI	0x01
00003f   562e     movra   0x2e             	MOVRA	_mode_flag
000040   a065     goto    0x65             	GOTO	_00332_DS_
                                           _00314_DS_
                                           ;	.line	433; "MC32P7311.c"	else if (MODE_2 == mode_flag)
000041   582e     movar   0x2e             	MOVAR	_mode_flag
000042   3901     xorai   0x1              	XORAI	0x01
000043   e587     jbset   0x187, 0x2       	JBSET	PFLAG,2
000044   a04c     goto    0x4c             	GOTO	_00311_DS_
                                           ;	.line	436; "MC32P7311.c"	T0DATA = 103;
000045   3c67     movai   0x67             	MOVAI	0x67
000046   579b     movra   0x19b            	MOVRA	_T0DATA
                                           ;	.line	437; "MC32P7311.c"	T1DATA = 103; // 80.5%占空比
000047   3c67     movai   0x67             	MOVAI	0x67
000048   579f     movra   0x19f            	MOVRA	_T1DATA
                                           ;	.line	439; "MC32P7311.c"	mode_flag = MODE_3;
000049   3c02     movai   0x2              	MOVAI	0x02
00004a   562e     movra   0x2e             	MOVRA	_mode_flag
00004b   a065     goto    0x65             	GOTO	_00332_DS_
                                           _00311_DS_
                                           ;	.line	441; "MC32P7311.c"	else if (MODE_3 == mode_flag)
00004c   582e     movar   0x2e             	MOVAR	_mode_flag
00004d   3902     xorai   0x2              	XORAI	0x02
00004e   e587     jbset   0x187, 0x2       	JBSET	PFLAG,2
00004f   a065     goto    0x65             	GOTO	_00332_DS_
                                           ;	.line	444; "MC32P7311.c"	T0DATA = 115;
000050   3c73     movai   0x73             	MOVAI	0x73
000051   579b     movra   0x19b            	MOVRA	_T0DATA
                                           ;	.line	445; "MC32P7311.c"	T1DATA = 115; // 89.9%占空比
000052   3c73     movai   0x73             	MOVAI	0x73
000053   579f     movra   0x19f            	MOVRA	_T1DATA
                                           ;	.line	447; "MC32P7311.c"	mode_flag = MODE_1;
000054   762e     clrr    0x2e             	CLRR	_mode_flag
                                           ;	.line	450; "MC32P7311.c"	break;
000055   a065     goto    0x65             	GOTO	_00332_DS_
                                           _00318_DS_
                                           ;	.line	453; "MC32P7311.c"	if (0 == FLAG_IS_DEVICE_OPEN)
000056   f033     jbclr   0x33, 0          	JBCLR	_flag1,0
000057   a060     goto    0x60             	GOTO	_00329_DS_
                                           ;	.line	456; "MC32P7311.c"	LED_WORKING_ON(); // 打开电源指示灯
000058   d994     bclr    0x194, 0x4       	BCLR	_IOP1bits,4
                                           ;	.line	457; "MC32P7311.c"	FLAG_IS_DEVICE_OPEN = 1;
000059   c033     bset    0x33, 0          	BSET	_flag1,0
                                           ;	.line	460; "MC32P7311.c"	T0DATA = 115;
00005a   3c73     movai   0x73             	MOVAI	0x73
00005b   579b     movra   0x19b            	MOVRA	_T0DATA
                                           ;	.line	461; "MC32P7311.c"	T1DATA = 115; // 约为 89.9%
00005c   3c73     movai   0x73             	MOVAI	0x73
00005d   579f     movra   0x19f            	MOVRA	_T1DATA
                                           ;	.line	464; "MC32P7311.c"	PWM0OE = 1;
00005e   cd98     bset    0x198, 0x6       	BSET	_T0CRbits,6
00005f   a065     goto    0x65             	GOTO	_00332_DS_
                                           _00329_DS_
                                           ;	.line	469; "MC32P7311.c"	FLAG_IS_DEVICE_OPEN = 0;
000060   d033     bclr    0x33, 0          	BCLR	_flag1,0
                                           ;	.line	470; "MC32P7311.c"	LED_WORKING_OFF(); // 关闭电源指示灯
000061   c994     bset    0x194, 0x4       	BSET	_IOP1bits,4
                                           ;	.line	471; "MC32P7311.c"	HEATING_OFF(); // 关闭加热
000062   d594     bclr    0x194, 0x2       	BCLR	_IOP1bits,2
                                           ;	.line	474; "MC32P7311.c"	PWM0OE = 0;
000063   dd98     bclr    0x198, 0x6       	BCLR	_T0CRbits,6
                                           ;	.line	475; "MC32P7311.c"	PWM1OE = 0;
000064   dd9c     bclr    0x19c, 0x6       	BCLR	_T1CRbits,6
                                           _00332_DS_
                                           ;	.line	483; "MC32P7311.c"	key_press_flag = KEY_NONE;
000065   762f     clrr    0x2f             	CLRR	_key_press_flag
                                           _00335_DS_
                                           ;	.line	485; "MC32P7311.c"	}
000066   000c     return                   	RETURN	
                                           ; exit point of _key_handle
                                           
                                           ;***
                                           ;  pBlock Stats: dbName = C
                                           ;***
                                           ;entry:  _key_scan	;Function start
                                           ; 2 exit points
                                           ;has an exit
                                           ;functions called:
                                           ;   _delay_ms
                                           ;   _delay_ms
                                           ;   _delay_ms
                                           ;   _delay_ms
                                           ;   _delay_ms
                                           ;   _delay_ms
                                           ;4 compiler assigned registers:
                                           ;   r0x1010
                                           ;   STK02
                                           ;   STK01
                                           ;   STK00
                                           ;; Starting pCode block
                                           _key_scan	;Function start
                                           ; 2 exit points
                                           ;	.line	336; "MC32P7311.c"	if (0 == KEY_HEAT_PIN)
000067   f190     jbclr   0x190, 0         	JBCLR	_IOP0bits,0
000068   a085     goto    0x85             	GOTO	_00279_DS_
                                           ;	.line	338; "MC32P7311.c"	for (i = 0; i < 20; i++)
000069   7630     clrr    0x30             	CLRR	_i
00006a   7627     clrr    0x27             	CLRR	r0x1010
                                           ;;unsigned compare: left < lit(0x14=20), size=1
                                           _00282_DS_
00006b   3c14     movai   0x14             	MOVAI	0x14
00006c   4830     rsubar  0x30             	RSUBAR	_i
00006d   f187     jbclr   0x187, 0         	JBCLR	PFLAG,0
00006e   a07c     goto    0x7c             	GOTO	_00251_DS_
                                           ;;genSkipc:3291: created from rifx:013B5EFC
                                           ;	.line	340; "MC32P7311.c"	if (0 == KEY_HEAT_PIN)
00006f   f190     jbclr   0x190, 0         	JBCLR	_IOP0bits,0
000070   a072     goto    0x72             	GOTO	_00250_DS_
                                           ;	.line	342; "MC32P7311.c"	cnt++;
000071   6627     incr    0x27             	INCR	r0x1010
                                           _00250_DS_
                                           ;	.line	344; "MC32P7311.c"	delay_ms(1);
000072   3c01     movai   0x1              	MOVAI	0x01
000073   5604     movra   0x4              	MOVRA	STK02
000074   3c00     movai   0                	MOVAI	0x00
000075   5605     movra   0x5              	MOVRA	STK01
000076   3c00     movai   0                	MOVAI	0x00
000077   5606     movra   0x6              	MOVRA	STK00
000078   3c00     movai   0                	MOVAI	0x00
000079   81de     call    0x1de            	CALL	_delay_ms
                                           ;	.line	338; "MC32P7311.c"	for (i = 0; i < 20; i++)
00007a   6630     incr    0x30             	INCR	_i
00007b   a06b     goto    0x6b             	GOTO	_00282_DS_
                                           ;;unsigned compare: left < lit(0xF=15), size=1
                                           _00251_DS_
                                           ;	.line	347; "MC32P7311.c"	if (cnt >= 15)
00007c   3c0f     movai   0xf              	MOVAI	0x0f
00007d   4827     rsubar  0x27             	RSUBAR	r0x1010
00007e   e187     jbset   0x187, 0         	JBSET	PFLAG,0
00007f   a082     goto    0x82             	GOTO	_00254_DS_
                                           ;;genSkipc:3291: created from rifx:013B5EFC
                                           ;	.line	349; "MC32P7311.c"	key_press_flag = KEY_HEAT_PRESS;
000080   3c01     movai   0x1              	MOVAI	0x01
000081   562f     movra   0x2f             	MOVRA	_key_press_flag
                                           _00254_DS_
                                           ;	.line	352; "MC32P7311.c"	while (0 == KEY_HEAT_PIN)
000082   f190     jbclr   0x190, 0         	JBCLR	_IOP0bits,0
000083   a0c0     goto    0xc0             	GOTO	_00290_DS_
000084   a082     goto    0x82             	GOTO	_00254_DS_
                                           _00279_DS_
                                           ;	.line	355; "MC32P7311.c"	else if (0 == KEY_CHANGE_PIN)
000085   f390     jbclr   0x190, 0x1       	JBCLR	_IOP0bits,1
000086   a0a3     goto    0xa3             	GOTO	_00276_DS_
                                           ;	.line	357; "MC32P7311.c"	for (i = 0; i < 20; i++)
000087   7630     clrr    0x30             	CLRR	_i
000088   7627     clrr    0x27             	CLRR	r0x1010
                                           ;;unsigned compare: left < lit(0x14=20), size=1
                                           _00285_DS_
000089   3c14     movai   0x14             	MOVAI	0x14
00008a   4830     rsubar  0x30             	RSUBAR	_i
00008b   f187     jbclr   0x187, 0         	JBCLR	PFLAG,0
00008c   a09a     goto    0x9a             	GOTO	_00259_DS_
                                           ;;genSkipc:3291: created from rifx:013B5EFC
                                           ;	.line	359; "MC32P7311.c"	if (0 == KEY_CHANGE_PIN)
00008d   f390     jbclr   0x190, 0x1       	JBCLR	_IOP0bits,1
00008e   a090     goto    0x90             	GOTO	_00258_DS_
                                           ;	.line	361; "MC32P7311.c"	cnt++;
00008f   6627     incr    0x27             	INCR	r0x1010
                                           _00258_DS_
                                           ;	.line	363; "MC32P7311.c"	delay_ms(1);
000090   3c01     movai   0x1              	MOVAI	0x01
000091   5604     movra   0x4              	MOVRA	STK02
000092   3c00     movai   0                	MOVAI	0x00
000093   5605     movra   0x5              	MOVRA	STK01
000094   3c00     movai   0                	MOVAI	0x00
000095   5606     movra   0x6              	MOVRA	STK00
000096   3c00     movai   0                	MOVAI	0x00
000097   81de     call    0x1de            	CALL	_delay_ms
                                           ;	.line	357; "MC32P7311.c"	for (i = 0; i < 20; i++)
000098   6630     incr    0x30             	INCR	_i
000099   a089     goto    0x89             	GOTO	_00285_DS_
                                           ;;unsigned compare: left < lit(0xF=15), size=1
                                           _00259_DS_
                                           ;	.line	366; "MC32P7311.c"	if (cnt >= 15)
00009a   3c0f     movai   0xf              	MOVAI	0x0f
00009b   4827     rsubar  0x27             	RSUBAR	r0x1010
00009c   e187     jbset   0x187, 0         	JBSET	PFLAG,0
00009d   a0a0     goto    0xa0             	GOTO	_00262_DS_
                                           ;;genSkipc:3291: created from rifx:013B5EFC
                                           ;	.line	368; "MC32P7311.c"	key_press_flag = KEY_CHANGE_PRESS;
00009e   3c02     movai   0x2              	MOVAI	0x02
00009f   562f     movra   0x2f             	MOVRA	_key_press_flag
                                           _00262_DS_
                                           ;	.line	371; "MC32P7311.c"	while (0 == KEY_CHANGE_PIN)
0000a0   f390     jbclr   0x190, 0x1       	JBCLR	_IOP0bits,1
0000a1   a0c0     goto    0xc0             	GOTO	_00290_DS_
0000a2   a0a0     goto    0xa0             	GOTO	_00262_DS_
                                           _00276_DS_
                                           ;	.line	374; "MC32P7311.c"	else if (0 == KEY_POWER_PIN)
0000a3   fb90     jbclr   0x190, 0x5       	JBCLR	_IOP0bits,5
0000a4   a0c0     goto    0xc0             	GOTO	_00290_DS_
                                           ;	.line	376; "MC32P7311.c"	for (i = 0; i < 20; i++)
0000a5   7630     clrr    0x30             	CLRR	_i
0000a6   7627     clrr    0x27             	CLRR	r0x1010
                                           ;;unsigned compare: left < lit(0x14=20), size=1
                                           _00288_DS_
0000a7   3c14     movai   0x14             	MOVAI	0x14
0000a8   4830     rsubar  0x30             	RSUBAR	_i
0000a9   f187     jbclr   0x187, 0         	JBCLR	PFLAG,0
0000aa   a0b8     goto    0xb8             	GOTO	_00267_DS_
                                           ;;genSkipc:3291: created from rifx:013B5EFC
                                           ;	.line	378; "MC32P7311.c"	if (0 == KEY_POWER_PIN)
0000ab   fb90     jbclr   0x190, 0x5       	JBCLR	_IOP0bits,5
0000ac   a0ae     goto    0xae             	GOTO	_00266_DS_
                                           ;	.line	380; "MC32P7311.c"	cnt++;
0000ad   6627     incr    0x27             	INCR	r0x1010
                                           _00266_DS_
                                           ;	.line	382; "MC32P7311.c"	delay_ms(1);
0000ae   3c01     movai   0x1              	MOVAI	0x01
0000af   5604     movra   0x4              	MOVRA	STK02
0000b0   3c00     movai   0                	MOVAI	0x00
0000b1   5605     movra   0x5              	MOVRA	STK01
0000b2   3c00     movai   0                	MOVAI	0x00
0000b3   5606     movra   0x6              	MOVRA	STK00
0000b4   3c00     movai   0                	MOVAI	0x00
0000b5   81de     call    0x1de            	CALL	_delay_ms
                                           ;	.line	376; "MC32P7311.c"	for (i = 0; i < 20; i++)
0000b6   6630     incr    0x30             	INCR	_i
0000b7   a0a7     goto    0xa7             	GOTO	_00288_DS_
                                           ;;unsigned compare: left < lit(0xF=15), size=1
                                           _00267_DS_
                                           ;	.line	385; "MC32P7311.c"	if (cnt >= 15)
0000b8   3c0f     movai   0xf              	MOVAI	0x0f
0000b9   4827     rsubar  0x27             	RSUBAR	r0x1010
0000ba   e187     jbset   0x187, 0         	JBSET	PFLAG,0
0000bb   a0be     goto    0xbe             	GOTO	_00270_DS_
                                           ;;genSkipc:3291: created from rifx:013B5EFC
                                           ;	.line	387; "MC32P7311.c"	key_press_flag = KEY_POWER_PRESS;
0000bc   3c03     movai   0x3              	MOVAI	0x03
0000bd   562f     movra   0x2f             	MOVRA	_key_press_flag
                                           _00270_DS_
                                           ;	.line	390; "MC32P7311.c"	while (0 == KEY_POWER_PIN)
0000be   eb90     jbset   0x190, 0x5       	JBSET	_IOP0bits,5
0000bf   a0be     goto    0xbe             	GOTO	_00270_DS_
                                           _00290_DS_
                                           ;	.line	393; "MC32P7311.c"	}
0000c0   000c     return                   	RETURN	
                                           ; exit point of _key_scan
                                           
                                           ;***
                                           ;  pBlock Stats: dbName = C
                                           ;***
                                           ;entry:  _Sys_Init	;Function start
                                           ; 2 exit points
                                           ;has an exit
                                           ;functions called:
                                           ;   _CLR_RAM
                                           ;   _IO_Init
                                           ;   _timer0_pwm_config
                                           ;   _timer1_pwm_config
                                           ;   _timer2_pwm_config
                                           ;   _key_config
                                           ;   _adc_config
                                           ;   _CLR_RAM
                                           ;   _IO_Init
                                           ;   _timer0_pwm_config
                                           ;   _timer1_pwm_config
                                           ;   _timer2_pwm_config
                                           ;   _key_config
                                           ;   _adc_config
                                           ;; Starting pCode block
                                           _Sys_Init	;Function start
                                           ; 2 exit points
                                           ;	.line	309; "MC32P7311.c"	GIE = 0;
0000c1   df88     bclr    0x188, 0x7       	BCLR	_MCRbits,7
                                           ;	.line	310; "MC32P7311.c"	CLR_RAM();
0000c2   8176     call    0x176            	CALL	_CLR_RAM
                                           ;	.line	311; "MC32P7311.c"	IO_Init();
0000c3   8167     call    0x167            	CALL	_IO_Init
                                           ;	.line	313; "MC32P7311.c"	timer0_pwm_config();
0000c4   815f     call    0x15f            	CALL	_timer0_pwm_config
                                           ;	.line	314; "MC32P7311.c"	timer1_pwm_config();
0000c5   8157     call    0x157            	CALL	_timer1_pwm_config
                                           ;	.line	315; "MC32P7311.c"	timer2_pwm_config();
0000c6   814c     call    0x14c            	CALL	_timer2_pwm_config
                                           ;	.line	317; "MC32P7311.c"	key_config();
0000c7   8145     call    0x145            	CALL	_key_config
                                           ;	.line	318; "MC32P7311.c"	adc_config();
0000c8   8137     call    0x137            	CALL	_adc_config
                                           ;	.line	320; "MC32P7311.c"	GIE = 1;
0000c9   cf88     bset    0x188, 0x7       	BSET	_MCRbits,7
                                           ;	.line	321; "MC32P7311.c"	}
0000ca   000c     return                   	RETURN	
                                           ; exit point of _Sys_Init
                                           
                                           ;***
                                           ;  pBlock Stats: dbName = C
                                           ;***
                                           ;entry:  _adc_get_val	;Function start
                                           ; 2 exit points
                                           ;has an exit
                                           ;14 compiler assigned registers:
                                           ;   r0x1011
                                           ;   r0x1012
                                           ;   r0x1013
                                           ;   r0x1014
                                           ;   r0x1015
                                           ;   r0x1016
                                           ;   r0x1017
                                           ;   r0x1018
                                           ;   r0x1019
                                           ;   r0x101A
                                           ;   r0x101B
                                           ;   r0x101C
                                           ;   r0x101D
                                           ;   STK00
                                           ;; Starting pCode block
                                           _adc_get_val	;Function start
                                           ; 2 exit points
                                           ;	.line	274; "MC32P7311.c"	u16 g_tmpbuff = 0;
0000cb   761c     clrr    0x1c             	CLRR	r0x1011
0000cc   761d     clrr    0x1d             	CLRR	r0x1012
                                           ;	.line	275; "MC32P7311.c"	u16 g_adcmax = 0;
0000cd   761e     clrr    0x1e             	CLRR	r0x1013
0000ce   761f     clrr    0x1f             	CLRR	r0x1014
                                           ;	.line	276; "MC32P7311.c"	u16 g_adcmin = 0xFFFF;
0000cf   3cff     movai   0xff             	MOVAI	0xff
0000d0   5620     movra   0x20             	MOVRA	r0x1015
0000d1   5621     movra   0x21             	MOVRA	r0x1016
                                           ;	.line	279; "MC32P7311.c"	for (cnt = 0; cnt < 20; cnt++)
0000d2   7622     clrr    0x22             	CLRR	r0x1017
                                           _00199_DS_
                                           ;	.line	281; "MC32P7311.c"	ADEOC = 0; // 清除ADC转换完成标志位，启动AD转换
0000d3   d3b0     bclr    0x1b0, 0x1       	BCLR	_ADCR0bits,1
                                           _00188_DS_
                                           ;	.line	282; "MC32P7311.c"	while (!ADEOC)
0000d4   e3b0     jbset   0x1b0, 0x1       	JBSET	_ADCR0bits,1
0000d5   a0d4     goto    0xd4             	GOTO	_00188_DS_
                                           ;	.line	284; "MC32P7311.c"	g_temp_value = ADRH; // 取出转换后的值
0000d6   59b4     movar   0x1b4            	MOVAR	_ADRH
0000d7   5623     movra   0x23             	MOVRA	r0x1018
0000d8   7624     clrr    0x24             	CLRR	r0x1019
                                           ;	.line	285; "MC32P7311.c"	g_temp_value = g_temp_value << 4 | (ADRL & 0x0F);
0000d9   4424     swapar  0x24             	SWAPAR	r0x1019
0000da   3ef0     andai   0xf0             	ANDAI	0xf0
0000db   5626     movra   0x26             	MOVRA	r0x101A
0000dc   4423     swapar  0x23             	SWAPAR	r0x1018
0000dd   5625     movra   0x25             	MOVRA	r0x101B
0000de   3e0f     andai   0xf              	ANDAI	0x0f
0000df   5e26     orra    0x26             	ORRA	r0x101A
0000e0   4225     xorra   0x25             	XORRA	r0x101B
0000e1   59b5     movar   0x1b5            	MOVAR	_ADRL
0000e2   5623     movra   0x23             	MOVRA	r0x1018
0000e3   7624     clrr    0x24             	CLRR	r0x1019
0000e4   3c0f     movai   0xf              	MOVAI	0x0f
0000e5   7a23     andra   0x23             	ANDRA	r0x1018
0000e6   7624     clrr    0x24             	CLRR	r0x1019
                                           ;;101	MOVAR	r0x1018
                                           ;;99	MOVRA	r0x101C
                                           ;;104	MOVAR	r0x1019
                                           ;;102	MOVRA	r0x101D
                                           ;;100	MOVAR	r0x101C
0000e7   5823     movar   0x23             	MOVAR	r0x1018
0000e8   5c25     orar    0x25             	ORAR	r0x101B
0000e9   5623     movra   0x23             	MOVRA	r0x1018
                                           ;;103	MOVAR	r0x101D
0000ea   3c00     movai   0                	MOVAI	0x00
0000eb   5c26     orar    0x26             	ORAR	r0x101A
0000ec   5624     movra   0x24             	MOVRA	r0x1019
                                           ;;unsigned compare: left < lit(0x2=2), size=1
                                           ;	.line	286; "MC32P7311.c"	if (cnt < 2)
0000ed   3c02     movai   0x2              	MOVAI	0x02
0000ee   4822     rsubar  0x22             	RSUBAR	r0x1017
0000ef   e187     jbset   0x187, 0         	JBSET	PFLAG,0
0000f0   a10f     goto    0x10f            	GOTO	_00197_DS_
                                           ;;genSkipc:3291: created from rifx:013B5EFC
                                           ;	.line	288; "MC32P7311.c"	if (g_temp_value > g_adcmax)
0000f1   5824     movar   0x24             	MOVAR	r0x1019
0000f2   481f     rsubar  0x1f             	RSUBAR	r0x1014
0000f3   e587     jbset   0x187, 0x2       	JBSET	PFLAG,2
0000f4   a0f7     goto    0xf7             	GOTO	_00239_DS_
0000f5   5823     movar   0x23             	MOVAR	r0x1018
0000f6   481e     rsubar  0x1e             	RSUBAR	r0x1013
                                           _00239_DS_
0000f7   f187     jbclr   0x187, 0         	JBCLR	PFLAG,0
0000f8   a0fd     goto    0xfd             	GOTO	_00194_DS_
                                           ;;genSkipc:3291: created from rifx:013B5EFC
                                           ;	.line	289; "MC32P7311.c"	g_adcmax = g_temp_value; // 最大
0000f9   5823     movar   0x23             	MOVAR	r0x1018
0000fa   561e     movra   0x1e             	MOVRA	r0x1013
0000fb   5824     movar   0x24             	MOVAR	r0x1019
0000fc   561f     movra   0x1f             	MOVRA	r0x1014
                                           _00194_DS_
                                           ;	.line	290; "MC32P7311.c"	if (g_temp_value < g_adcmin)
0000fd   5821     movar   0x21             	MOVAR	r0x1016
0000fe   4824     rsubar  0x24             	RSUBAR	r0x1019
0000ff   e587     jbset   0x187, 0x2       	JBSET	PFLAG,2
000100   a103     goto    0x103            	GOTO	_00240_DS_
000101   5820     movar   0x20             	MOVAR	r0x1015
000102   4823     rsubar  0x23             	RSUBAR	r0x1018
                                           _00240_DS_
000103   f187     jbclr   0x187, 0         	JBCLR	PFLAG,0
000104   a109     goto    0x109            	GOTO	_00196_DS_
                                           ;;genSkipc:3291: created from rifx:013B5EFC
                                           ;	.line	291; "MC32P7311.c"	g_adcmin = g_temp_value; // 最小
000105   5823     movar   0x23             	MOVAR	r0x1018
000106   5620     movra   0x20             	MOVRA	r0x1015
000107   5824     movar   0x24             	MOVAR	r0x1019
000108   5621     movra   0x21             	MOVRA	r0x1016
                                           _00196_DS_
                                           ;	.line	292; "MC32P7311.c"	g_tmpbuff += g_temp_value;
000109   5823     movar   0x23             	MOVAR	r0x1018
00010a   7e1c     addra   0x1c             	ADDRA	r0x1011
00010b   5824     movar   0x24             	MOVAR	r0x1019
00010c   f187     jbclr   0x187, 0         	JBCLR	PFLAG,0
00010d   6024     jzar    0x24             	JZAR	r0x1019
00010e   7e1d     addra   0x1d             	ADDRA	r0x1012
                                           _00197_DS_
                                           ;	.line	279; "MC32P7311.c"	for (cnt = 0; cnt < 20; cnt++)
00010f   6622     incr    0x22             	INCR	r0x1017
                                           ;;unsigned compare: left < lit(0x14=20), size=1
000110   3c14     movai   0x14             	MOVAI	0x14
000111   4822     rsubar  0x22             	RSUBAR	r0x1017
000112   e187     jbset   0x187, 0         	JBSET	PFLAG,0
000113   a0d3     goto    0xd3             	GOTO	_00199_DS_
                                           ;;genSkipc:3291: created from rifx:013B5EFC
                                           ;	.line	294; "MC32P7311.c"	g_tmpbuff -= g_adcmax;			 // 去掉一个最大
000114   581e     movar   0x1e             	MOVAR	r0x1013
000115   481c     rsubar  0x1c             	RSUBAR	r0x1011
000116   561e     movra   0x1e             	MOVRA	r0x1013
000117   581f     movar   0x1f             	MOVAR	r0x1014
000118   e187     jbset   0x187, 0         	JBSET	PFLAG,0
000119   641f     incar   0x1f             	INCAR	r0x1014
00011a   481d     rsubar  0x1d             	RSUBAR	r0x1012
00011b   561f     movra   0x1f             	MOVRA	r0x1014
                                           ;	.line	295; "MC32P7311.c"	g_tmpbuff -= g_adcmin;			 // 去掉一个最小
00011c   5820     movar   0x20             	MOVAR	r0x1015
00011d   4a1e     rsubra  0x1e             	RSUBRA	r0x1013
00011e   5821     movar   0x21             	MOVAR	r0x1016
00011f   e187     jbset   0x187, 0         	JBSET	PFLAG,0
000120   6021     jzar    0x21             	JZAR	r0x1016
000121   4a1f     rsubra  0x1f             	RSUBRA	r0x1014
                                           ;	.line	296; "MC32P7311.c"	g_temp_value = (g_tmpbuff >> 4); // 除以16，取平均值
000122   441e     swapar  0x1e             	SWAPAR	r0x1013
000123   3e0f     andai   0xf              	ANDAI	0x0f
000124   561c     movra   0x1c             	MOVRA	r0x1011
000125   441f     swapar  0x1f             	SWAPAR	r0x1014
000126   561d     movra   0x1d             	MOVRA	r0x1012
000127   3ef0     andai   0xf0             	ANDAI	0xf0
000128   5e1c     orra    0x1c             	ORRA	r0x1011
000129   421d     xorra   0x1d             	XORRA	r0x1012
                                           ;	.line	298; "MC32P7311.c"	return g_temp_value;
00012a   581c     movar   0x1c             	MOVAR	r0x1011
00012b   5606     movra   0x6              	MOVRA	STK00
00012c   581d     movar   0x1d             	MOVAR	r0x1012
                                           ;	.line	299; "MC32P7311.c"	}
00012d   000c     return                   	RETURN	
                                           ; exit point of _adc_get_val
                                           
                                           ;***
                                           ;  pBlock Stats: dbName = C
                                           ;***
                                           ;entry:  _adc_sel_pin	;Function start
                                           ; 2 exit points
                                           ;has an exit
                                           ;functions called:
                                           ;   _delay_ms
                                           ;   _delay_ms
                                           ;3 compiler assigned registers:
                                           ;   STK02
                                           ;   STK01
                                           ;   STK00
                                           ;; Starting pCode block
                                           _adc_sel_pin	;Function start
                                           ; 2 exit points
                                           ;	.line	266; "MC32P7311.c"	delay_ms(1); // 切换adc检测的引脚后，要延时一段时间，防止意料之外的检测结果
00012e   3c01     movai   0x1              	MOVAI	0x01
00012f   5604     movra   0x4              	MOVRA	STK02
000130   3c00     movai   0                	MOVAI	0x00
000131   5605     movra   0x5              	MOVRA	STK01
000132   3c00     movai   0                	MOVAI	0x00
000133   5606     movra   0x6              	MOVRA	STK00
000134   3c00     movai   0                	MOVAI	0x00
000135   81de     call    0x1de            	CALL	_delay_ms
                                           ;	.line	267; "MC32P7311.c"	}
000136   000c     return                   	RETURN	
                                           ; exit point of _adc_sel_pin
                                           
                                           ;***
                                           ;  pBlock Stats: dbName = C
                                           ;***
                                           ;entry:  _adc_config	;Function start
                                           ; 2 exit points
                                           ;has an exit
                                           ;; Starting pCode block
                                           _adc_config	;Function start
                                           ; 2 exit points
                                           ;	.line	236; "MC32P7311.c"	P11PU = 0;
000137   d396     bclr    0x196, 0x1       	BCLR	_PUP1bits,1
                                           ;	.line	237; "MC32P7311.c"	P11PD = 0;
000138   d397     bclr    0x197, 0x1       	BCLR	_PDP1bits,1
                                           ;	.line	238; "MC32P7311.c"	P11OE = 0;	// 输入模式
000139   d395     bclr    0x195, 0x1       	BCLR	_OEP1bits,1
                                           ;	.line	239; "MC32P7311.c"	P11ANS = 1; // 模拟输入
00013a   cdb6     bset    0x1b6, 0x6       	BSET	_ANSEL0bits,6
                                           ;	.line	241; "MC32P7311.c"	ADCR0 = 0x0A;		// 12位精度、不启用ADC转换，不使能ADC
00013b   3c0a     movai   0xa              	MOVAI	0x0a
00013c   57b0     movra   0x1b0            	MOVRA	_ADCR0
                                           ;	.line	242; "MC32P7311.c"	ADCR0 |= 0x03 << 5; // AIN6--P11
00013d   3c60     movai   0x60             	MOVAI	0x60
00013e   5fb0     orra    0x1b0            	ORRA	_ADCR0
                                           ;	.line	247; "MC32P7311.c"	ADCR1 = 0xE1; // 125K采样（最高精度）  内部3V参考电压
00013f   3ce1     movai   0xe1             	MOVAI	0xe1
000140   57b1     movra   0x1b1            	MOVRA	_ADCR1
                                           ;	.line	248; "MC32P7311.c"	ADCR2 = 0xFF; // ADC采样时间为15个ADC时钟
000141   3cff     movai   0xff             	MOVAI	0xff
000142   57b2     movra   0x1b2            	MOVRA	_ADCR2
                                           ;	.line	249; "MC32P7311.c"	ADON = 1;	  // 使能ADC
000143   c1b0     bset    0x1b0, 0         	BSET	_ADCR0bits,0
                                           ;	.line	250; "MC32P7311.c"	}
000144   000c     return                   	RETURN	
                                           ; exit point of _adc_config
                                           
                                           ;***
                                           ;  pBlock Stats: dbName = C
                                           ;***
                                           ;entry:  _key_config	;Function start
                                           ; 2 exit points
                                           ;has an exit
                                           ;; Starting pCode block
                                           _key_config	;Function start
                                           ; 2 exit points
                                           ;	.line	215; "MC32P7311.c"	P05PU = 1;
000145   cb92     bset    0x192, 0x5       	BSET	_PUP0bits,5
                                           ;	.line	216; "MC32P7311.c"	P05OE = 0;
000146   db91     bclr    0x191, 0x5       	BCLR	_OEP0bits,5
                                           ;	.line	221; "MC32P7311.c"	P00PU = 1;
000147   c192     bset    0x192, 0         	BSET	_PUP0bits,0
                                           ;	.line	222; "MC32P7311.c"	P00OE = 0;
000148   d191     bclr    0x191, 0         	BCLR	_OEP0bits,0
                                           ;	.line	224; "MC32P7311.c"	P01PU = 1;
000149   c392     bset    0x192, 0x1       	BSET	_PUP0bits,1
                                           ;	.line	225; "MC32P7311.c"	P01OE = 0;
00014a   d391     bclr    0x191, 0x1       	BCLR	_OEP0bits,1
                                           ;	.line	226; "MC32P7311.c"	}
00014b   000c     return                   	RETURN	
                                           ; exit point of _key_config
                                           
                                           ;***
                                           ;  pBlock Stats: dbName = C
                                           ;***
                                           ;entry:  _timer2_pwm_config	;Function start
                                           ; 2 exit points
                                           ;has an exit
                                           ;; Starting pCode block
                                           _timer2_pwm_config	;Function start
                                           ; 2 exit points
                                           ;	.line	203; "MC32P7311.c"	T2LOAD = 52 - 1;
00014c   3c33     movai   0x33             	MOVAI	0x33
00014d   57a2     movra   0x1a2            	MOVRA	_T2LOAD
                                           ;	.line	204; "MC32P7311.c"	T2DATA = 20; // 占空比 == T1DATA / T1LOAD
00014e   3c14     movai   0x14             	MOVAI	0x14
00014f   57a3     movra   0x1a3            	MOVRA	_T2DATA
                                           ;	.line	205; "MC32P7311.c"	PWM2OE = 0;	 // 禁止PWM输出
000150   dda0     bclr    0x1a0, 0x6       	BCLR	_T2CRbits,6
                                           ;	.line	207; "MC32P7311.c"	TC2EN = 1;
000151   cfa0     bset    0x1a0, 0x7       	BSET	_T2CRbits,7
                                           ;	.line	208; "MC32P7311.c"	}
000152   000c     return                   	RETURN	
                                           ; exit point of _timer2_pwm_config
                                           
                                           ;***
                                           ;  pBlock Stats: dbName = C
                                           ;***
                                           ;entry:  _timer1_pwm_close	;Function start
                                           ; 2 exit points
                                           ;has an exit
                                           ;; Starting pCode block
                                           _timer1_pwm_close	;Function start
                                           ; 2 exit points
                                           ;	.line	177; "MC32P7311.c"	PWM1OE = 0;
000153   dd9c     bclr    0x19c, 0x6       	BCLR	_T1CRbits,6
                                           ;	.line	178; "MC32P7311.c"	}
000154   000c     return                   	RETURN	
                                           ; exit point of _timer1_pwm_close
                                           
                                           ;***
                                           ;  pBlock Stats: dbName = C
                                           ;***
                                           ;entry:  _timer1_pwm_open	;Function start
                                           ; 2 exit points
                                           ;has an exit
                                           ;; Starting pCode block
                                           _timer1_pwm_open	;Function start
                                           ; 2 exit points
                                           ;	.line	171; "MC32P7311.c"	PWM1OE = 1;
000155   cd9c     bset    0x19c, 0x6       	BSET	_T1CRbits,6
                                           ;	.line	172; "MC32P7311.c"	}
000156   000c     return                   	RETURN	
                                           ; exit point of _timer1_pwm_open
                                           
                                           ;***
                                           ;  pBlock Stats: dbName = C
                                           ;***
                                           ;entry:  _timer1_pwm_config	;Function start
                                           ; 2 exit points
                                           ;has an exit
                                           ;; Starting pCode block
                                           _timer1_pwm_config	;Function start
                                           ; 2 exit points
                                           ;	.line	144; "MC32P7311.c"	T1CR |= 0x02; // 4分频
000157   c39c     bset    0x19c, 0x1       	BSET	_T1CR,1
                                           ;	.line	145; "MC32P7311.c"	T1LOAD = 128 - 1;
000158   3c7f     movai   0x7f             	MOVAI	0x7f
000159   579e     movra   0x19e            	MOVRA	_T1LOAD
                                           ;	.line	146; "MC32P7311.c"	T1DATA = 25; // 占空比 == T1DATA / T1LOAD
00015a   3c19     movai   0x19             	MOVAI	0x19
00015b   579f     movra   0x19f            	MOVRA	_T1DATA
                                           ;	.line	147; "MC32P7311.c"	PWM1OE = 0;	 // 禁止PWM1输出
00015c   dd9c     bclr    0x19c, 0x6       	BCLR	_T1CRbits,6
                                           ;	.line	148; "MC32P7311.c"	TC1EN = 1;	 // 启动定时器
00015d   cf9c     bset    0x19c, 0x7       	BSET	_T1CRbits,7
                                           ;	.line	166; "MC32P7311.c"	}
00015e   000c     return                   	RETURN	
                                           ; exit point of _timer1_pwm_config
                                           
                                           ;***
                                           ;  pBlock Stats: dbName = C
                                           ;***
                                           ;entry:  _timer0_pwm_config	;Function start
                                           ; 2 exit points
                                           ;has an exit
                                           ;; Starting pCode block
                                           _timer0_pwm_config	;Function start
                                           ; 2 exit points
                                           ;	.line	114; "MC32P7311.c"	T0CR |= 0x02; // 4分频
00015f   c398     bset    0x198, 0x1       	BSET	_T0CR,1
                                           ;	.line	115; "MC32P7311.c"	T0LOAD = 128 - 1;
000160   3c7f     movai   0x7f             	MOVAI	0x7f
000161   579a     movra   0x19a            	MOVRA	_T0LOAD
                                           ;	.line	116; "MC32P7311.c"	T0DATA = 25; // 占空比 == T0DATA / T0LOAD
000162   3c19     movai   0x19             	MOVAI	0x19
000163   579b     movra   0x19b            	MOVRA	_T0DATA
                                           ;	.line	117; "MC32P7311.c"	PWM0OE = 0;	 // 禁止PWM输出
000164   dd98     bclr    0x198, 0x6       	BCLR	_T0CRbits,6
                                           ;	.line	119; "MC32P7311.c"	TC0EN = 1; // 启动定时器
000165   cf98     bset    0x198, 0x7       	BSET	_T0CRbits,7
                                           ;	.line	137; "MC32P7311.c"	}
000166   000c     return                   	RETURN	
                                           ; exit point of _timer0_pwm_config
                                           
                                           ;***
                                           ;  pBlock Stats: dbName = C
                                           ;***
                                           ;entry:  _IO_Init	;Function start
                                           ; 2 exit points
                                           ;has an exit
                                           ;; Starting pCode block
                                           _IO_Init	;Function start
                                           ; 2 exit points
                                           ;	.line	94; "MC32P7311.c"	IOP0 = 0x00;   // io口数据位
000167   7790     clrr    0x190            	CLRR	_IOP0
                                           ;	.line	95; "MC32P7311.c"	OEP0 = 0xFF;   // io口方向 1:out  0:in   P00、1输出为开漏
000168   3cff     movai   0xff             	MOVAI	0xff
000169   5791     movra   0x191            	MOVRA	_OEP0
                                           ;	.line	96; "MC32P7311.c"	PUP0 = 0x00;   // io口上拉电阻   1:enable  0:disable
00016a   7792     clrr    0x192            	CLRR	_PUP0
                                           ;	.line	97; "MC32P7311.c"	PDP0 = 0x00;   // io口下拉电阻   1:enable  0:disable
00016b   7793     clrr    0x193            	CLRR	_PDP0
                                           ;	.line	98; "MC32P7311.c"	ANSEL0 = 0x00; // io类型选择  1:模拟输入  0:通用io
00016c   77b6     clrr    0x1b6            	CLRR	_ANSEL0
                                           ;	.line	100; "MC32P7311.c"	IOP1 = 0x00;   // io口数据位
00016d   7794     clrr    0x194            	CLRR	_IOP1
                                           ;	.line	101; "MC32P7311.c"	OEP1 = 0xFF;   // io口方向 1:out  0:in   P13输出为开漏
00016e   3cff     movai   0xff             	MOVAI	0xff
00016f   5795     movra   0x195            	MOVRA	_OEP1
                                           ;	.line	102; "MC32P7311.c"	PUP1 = 0x00;   // io口上拉电阻   1:enable  0:disable
000170   7796     clrr    0x196            	CLRR	_PUP1
                                           ;	.line	103; "MC32P7311.c"	PDP1 = 0x00;   // io口下拉电阻   1:enable  0:disable
000171   7797     clrr    0x197            	CLRR	_PDP1
                                           ;	.line	104; "MC32P7311.c"	ANSEL1 = 0x00; // io类型选择  1:模拟输入  0:通用io
000172   77b7     clrr    0x1b7            	CLRR	_ANSEL1
                                           ;	.line	106; "MC32P7311.c"	DRVCR = 0x80;
000173   3c80     movai   0x80             	MOVAI	0x80
000174   578c     movra   0x18c            	MOVRA	_DRVCR
                                           ;	.line	107; "MC32P7311.c"	}
000175   000c     return                   	RETURN	
                                           ; exit point of _IO_Init
                                           
                                           ;***
                                           ;  pBlock Stats: dbName = C
                                           ;***
                                           ;entry:  _CLR_RAM	;Function start
                                           ; 2 exit points
                                           ;has an exit
                                           ;; Starting pCode block
                                           _CLR_RAM	;Function start
                                           ; 2 exit points
                                           ;	.line	79; "MC32P7311.c"	for (FSR0 = 0; FSR0 < 0xff; FSR0++)
000176   7784     clrr    0x184            	CLRR	_FSR0
                                           ;;unsigned compare: left < lit(0xFF=255), size=1
                                           _00147_DS_
000177   3cff     movai   0xff             	MOVAI	0xff
000178   4984     rsubar  0x184            	RSUBAR	_FSR0
000179   f187     jbclr   0x187, 0         	JBCLR	PFLAG,0
00017a   a17e     goto    0x17e            	GOTO	_00145_DS_
                                           ;;genSkipc:3291: created from rifx:013B5EFC
                                           ;	.line	81; "MC32P7311.c"	INDF0 = 0x00;
00017b   7780     clrr    0x180            	CLRR	_INDF0
                                           ;	.line	79; "MC32P7311.c"	for (FSR0 = 0; FSR0 < 0xff; FSR0++)
00017c   6784     incr    0x184            	INCR	_FSR0
00017d   a177     goto    0x177            	GOTO	_00147_DS_
                                           _00145_DS_
                                           ;	.line	83; "MC32P7311.c"	FSR0 = 0xFF;
00017e   3cff     movai   0xff             	MOVAI	0xff
00017f   5784     movra   0x184            	MOVRA	_FSR0
                                           ;	.line	84; "MC32P7311.c"	INDF0 = 0x00;
000180   7780     clrr    0x180            	CLRR	_INDF0
                                           ;	.line	85; "MC32P7311.c"	}
000181   000c     return                   	RETURN	
                                           ; exit point of _CLR_RAM
                                           
                                           ;***
                                           ;  pBlock Stats: dbName = C
                                           ;***
                                           ;entry:  _send_32bits_data_by_irsir	;Function start
                                           ; 2 exit points
                                           ;has an exit
                                           ;functions called:
                                           ;   _delay_ms
                                           ;   _delay_ms
                                           ;   _delay_ms
                                           ;   _delay_ms
                                           ;   _delay_ms
                                           ;   _delay_ms
                                           ;   _delay_ms
                                           ;   _delay_ms
                                           ;   _delay_ms
                                           ;   _delay_ms
                                           ;   _delay_ms
                                           ;   _delay_ms
                                           ;12 compiler assigned registers:
                                           ;   r0x101E
                                           ;   STK00
                                           ;   r0x101F
                                           ;   STK01
                                           ;   r0x1020
                                           ;   STK02
                                           ;   r0x1021
                                           ;   r0x1022
                                           ;   r0x1023
                                           ;   r0x1024
                                           ;   r0x1025
                                           ;   r0x1026
                                           ;; Starting pCode block
                                           _send_32bits_data_by_irsir	;Function start
                                           ; 2 exit points
                                           ;	.line	32; "MC32P7311.c"	void send_32bits_data_by_irsir(u32 send_data)
000182   5616     movra   0x16             	MOVRA	r0x101E
000183   5806     movar   0x6              	MOVAR	STK00
000184   5615     movra   0x15             	MOVRA	r0x101F
000185   5805     movar   0x5              	MOVAR	STK01
000186   5614     movra   0x14             	MOVRA	r0x1020
000187   5804     movar   0x4              	MOVAR	STK02
000188   5613     movra   0x13             	MOVRA	r0x1021
                                           ;	.line	36; "MC32P7311.c"	P10D = 1;
000189   c194     bset    0x194, 0         	BSET	_IOP1bits,0
                                           ;	.line	37; "MC32P7311.c"	delay_ms(15);
00018a   3c0f     movai   0xf              	MOVAI	0x0f
00018b   5604     movra   0x4              	MOVRA	STK02
00018c   3c00     movai   0                	MOVAI	0x00
00018d   5605     movra   0x5              	MOVRA	STK01
00018e   3c00     movai   0                	MOVAI	0x00
00018f   5606     movra   0x6              	MOVRA	STK00
000190   3c00     movai   0                	MOVAI	0x00
000191   81de     call    0x1de            	CALL	_delay_ms
                                           ;	.line	39; "MC32P7311.c"	P10D = 0;
000192   d194     bclr    0x194, 0         	BCLR	_IOP1bits,0
                                           ;	.line	40; "MC32P7311.c"	delay_ms(7); // 延时4.5ms
000193   3c07     movai   0x7              	MOVAI	0x07
000194   5604     movra   0x4              	MOVRA	STK02
000195   3c00     movai   0                	MOVAI	0x00
000196   5605     movra   0x5              	MOVRA	STK01
000197   3c00     movai   0                	MOVAI	0x00
000198   5606     movra   0x6              	MOVRA	STK00
000199   3c00     movai   0                	MOVAI	0x00
00019a   81de     call    0x1de            	CALL	_delay_ms
                                           ;	.line	42; "MC32P7311.c"	for (u8 i = 0; i < 32; i++)
00019b   7617     clrr    0x17             	CLRR	r0x1022
                                           ;;unsigned compare: left < lit(0x20=32), size=1
                                           _00121_DS_
00019c   3c20     movai   0x20             	MOVAI	0x20
00019d   4817     rsubar  0x17             	RSUBAR	r0x1022
00019e   f187     jbclr   0x187, 0         	JBCLR	PFLAG,0
00019f   a1dc     goto    0x1dc            	GOTO	_00119_DS_
                                           ;;genSkipc:3291: created from rifx:013B5EFC
                                           ;	.line	44; "MC32P7311.c"	if ((send_data >> i) & 0x01)
0001a0   5816     movar   0x16             	MOVAR	r0x101E
0001a1   561b     movra   0x1b             	MOVRA	r0x1023
0001a2   5815     movar   0x15             	MOVAR	r0x101F
0001a3   561a     movra   0x1a             	MOVRA	r0x1024
0001a4   5814     movar   0x14             	MOVAR	r0x1020
0001a5   5619     movra   0x19             	MOVRA	r0x1025
0001a6   5813     movar   0x13             	MOVAR	r0x1021
0001a7   5618     movra   0x18             	MOVRA	r0x1026
0001a8   5817     movar   0x17             	MOVAR	r0x1022
0001a9   3a00     isubai  0                	ISUBAI	0x00
0001aa   f587     jbclr   0x187, 0x2       	JBCLR	PFLAG,2
0001ab   a1b3     goto    0x1b3            	GOTO	_00140_DS_
                                           _00139_DS_
0001ac   4e1b     rrr     0x1b             	RRR	r0x1023
0001ad   4e1a     rrr     0x1a             	RRR	r0x1024
0001ae   4e19     rrr     0x19             	RRR	r0x1025
0001af   4e18     rrr     0x18             	RRR	r0x1026
0001b0   3f01     addai   0x1              	ADDAI	0x01
0001b1   e187     jbset   0x187, 0         	JBSET	PFLAG,0
0001b2   a1ac     goto    0x1ac            	GOTO	_00139_DS_
                                           _00140_DS_
0001b3   e018     jbset   0x18, 0          	JBSET	r0x1026,0
0001b4   a1c8     goto    0x1c8            	GOTO	_00117_DS_
                                           ;	.line	48; "MC32P7311.c"	P10D = 1;
0001b5   c194     bset    0x194, 0         	BSET	_IOP1bits,0
                                           ;	.line	49; "MC32P7311.c"	delay_ms(6); //
0001b6   3c06     movai   0x6              	MOVAI	0x06
0001b7   5604     movra   0x4              	MOVRA	STK02
0001b8   3c00     movai   0                	MOVAI	0x00
0001b9   5605     movra   0x5              	MOVRA	STK01
0001ba   3c00     movai   0                	MOVAI	0x00
0001bb   5606     movra   0x6              	MOVRA	STK00
0001bc   3c00     movai   0                	MOVAI	0x00
0001bd   81de     call    0x1de            	CALL	_delay_ms
                                           ;	.line	51; "MC32P7311.c"	P10D = 0;
0001be   d194     bclr    0x194, 0         	BCLR	_IOP1bits,0
                                           ;	.line	52; "MC32P7311.c"	delay_ms(17); //
0001bf   3c11     movai   0x11             	MOVAI	0x11
0001c0   5604     movra   0x4              	MOVRA	STK02
0001c1   3c00     movai   0                	MOVAI	0x00
0001c2   5605     movra   0x5              	MOVRA	STK01
0001c3   3c00     movai   0                	MOVAI	0x00
0001c4   5606     movra   0x6              	MOVRA	STK00
0001c5   3c00     movai   0                	MOVAI	0x00
0001c6   81de     call    0x1de            	CALL	_delay_ms
0001c7   a1da     goto    0x1da            	GOTO	_00122_DS_
                                           _00117_DS_
                                           ;	.line	58; "MC32P7311.c"	P10D = 1;
0001c8   c194     bset    0x194, 0         	BSET	_IOP1bits,0
                                           ;	.line	59; "MC32P7311.c"	delay_ms(6); //
0001c9   3c06     movai   0x6              	MOVAI	0x06
0001ca   5604     movra   0x4              	MOVRA	STK02
0001cb   3c00     movai   0                	MOVAI	0x00
0001cc   5605     movra   0x5              	MOVRA	STK01
0001cd   3c00     movai   0                	MOVAI	0x00
0001ce   5606     movra   0x6              	MOVRA	STK00
0001cf   3c00     movai   0                	MOVAI	0x00
0001d0   81de     call    0x1de            	CALL	_delay_ms
                                           ;	.line	61; "MC32P7311.c"	P10D = 0;
0001d1   d194     bclr    0x194, 0         	BCLR	_IOP1bits,0
                                           ;	.line	62; "MC32P7311.c"	delay_ms(6); //
0001d2   3c06     movai   0x6              	MOVAI	0x06
0001d3   5604     movra   0x4              	MOVRA	STK02
0001d4   3c00     movai   0                	MOVAI	0x00
0001d5   5605     movra   0x5              	MOVRA	STK01
0001d6   3c00     movai   0                	MOVAI	0x00
0001d7   5606     movra   0x6              	MOVRA	STK00
0001d8   3c00     movai   0                	MOVAI	0x00
0001d9   81de     call    0x1de            	CALL	_delay_ms
                                           _00122_DS_
                                           ;	.line	42; "MC32P7311.c"	for (u8 i = 0; i < 32; i++)
0001da   6617     incr    0x17             	INCR	r0x1022
0001db   a19c     goto    0x19c            	GOTO	_00121_DS_
                                           _00119_DS_
                                           ;	.line	68; "MC32P7311.c"	P10D = 0;
0001dc   d194     bclr    0x194, 0         	BCLR	_IOP1bits,0
                                           ;	.line	69; "MC32P7311.c"	}
0001dd   000c     return                   	RETURN	
                                           ; exit point of _send_32bits_data_by_irsir
                                           
                                           ;***
                                           ;  pBlock Stats: dbName = C
                                           ;***
                                           ;entry:  _delay_ms	;Function start
                                           ; 2 exit points
                                           ;has an exit
                                           ;15 compiler assigned registers:
                                           ;   r0x1004
                                           ;   STK00
                                           ;   r0x1005
                                           ;   STK01
                                           ;   r0x1006
                                           ;   STK02
                                           ;   r0x1007
                                           ;   r0x1008
                                           ;   r0x1009
                                           ;   r0x100A
                                           ;   r0x100B
                                           ;   r0x100C
                                           ;   r0x100D
                                           ;   r0x100E
                                           ;   r0x100F
                                           ;; Starting pCode block
                                           _delay_ms	;Function start
                                           ; 2 exit points
                                           ;	.line	15; "MC32P7311.c"	void delay_ms(u32 xms)
0001de   560a     movra   0xa              	MOVRA	r0x1004
0001df   5806     movar   0x6              	MOVAR	STK00
0001e0   5609     movra   0x9              	MOVRA	r0x1005
0001e1   5805     movar   0x5              	MOVAR	STK01
0001e2   5608     movra   0x8              	MOVRA	r0x1006
0001e3   5804     movar   0x4              	MOVAR	STK02
0001e4   5607     movra   0x7              	MOVRA	r0x1007
                                           _00108_DS_
                                           ;	.line	17; "MC32P7311.c"	while (xms)
0001e5   5807     movar   0x7              	MOVAR	r0x1007
0001e6   5c08     orar    0x8              	ORAR	r0x1006
0001e7   5c09     orar    0x9              	ORAR	r0x1005
0001e8   5c0a     orar    0xa              	ORAR	r0x1004
0001e9   f587     jbclr   0x187, 0x2       	JBCLR	PFLAG,2
0001ea   a219     goto    0x219            	GOTO	_00111_DS_
                                           ;	.line	20; "MC32P7311.c"	while (i--)
0001eb   3c1f     movai   0x1f             	MOVAI	0x1f
0001ec   560b     movra   0xb              	MOVRA	r0x1008
0001ed   3c01     movai   0x1              	MOVAI	0x01
0001ee   560c     movra   0xc              	MOVRA	r0x1009
0001ef   760d     clrr    0xd              	CLRR	r0x100A
0001f0   760e     clrr    0xe              	CLRR	r0x100B
                                           _00105_DS_
0001f1   580b     movar   0xb              	MOVAR	r0x1008
0001f2   560f     movra   0xf              	MOVRA	r0x100C
0001f3   580c     movar   0xc              	MOVAR	r0x1009
0001f4   5610     movra   0x10             	MOVRA	r0x100D
0001f5   580d     movar   0xd              	MOVAR	r0x100A
0001f6   5611     movra   0x11             	MOVRA	r0x100E
0001f7   580e     movar   0xe              	MOVAR	r0x100B
0001f8   5612     movra   0x12             	MOVRA	r0x100F
0001f9   3cff     movai   0xff             	MOVAI	0xff
0001fa   7e0b     addra   0xb              	ADDRA	r0x1008
0001fb   3cff     movai   0xff             	MOVAI	0xff
0001fc   e187     jbset   0x187, 0         	JBSET	PFLAG,0
0001fd   7e0c     addra   0xc              	ADDRA	r0x1009
0001fe   3cff     movai   0xff             	MOVAI	0xff
0001ff   e187     jbset   0x187, 0         	JBSET	PFLAG,0
000200   7e0d     addra   0xd              	ADDRA	r0x100A
000201   3cff     movai   0xff             	MOVAI	0xff
000202   e187     jbset   0x187, 0         	JBSET	PFLAG,0
000203   7e0e     addra   0xe              	ADDRA	r0x100B
000204   580f     movar   0xf              	MOVAR	r0x100C
000205   5c10     orar    0x10             	ORAR	r0x100D
000206   5c11     orar    0x11             	ORAR	r0x100E
000207   5c12     orar    0x12             	ORAR	r0x100F
000208   f587     jbclr   0x187, 0x2       	JBCLR	PFLAG,2
000209   a20d     goto    0x20d            	GOTO	_00107_DS_
                                           ;	.line	22; "MC32P7311.c"	Nop();
00020a   0000     nop                      	nop	
                                           ;	.line	25; "MC32P7311.c"	__endasm;
                                           	;
00020b   000e     clrwdt                   	CLRWDT;
                                           	
00020c   a1f1     goto    0x1f1            	GOTO	_00105_DS_
                                           _00107_DS_
                                           ;	.line	27; "MC32P7311.c"	xms--;
00020d   3cff     movai   0xff             	MOVAI	0xff
00020e   7e07     addra   0x7              	ADDRA	r0x1007
00020f   3cff     movai   0xff             	MOVAI	0xff
000210   e187     jbset   0x187, 0         	JBSET	PFLAG,0
000211   7e08     addra   0x8              	ADDRA	r0x1006
000212   3cff     movai   0xff             	MOVAI	0xff
000213   e187     jbset   0x187, 0         	JBSET	PFLAG,0
000214   7e09     addra   0x9              	ADDRA	r0x1005
000215   3cff     movai   0xff             	MOVAI	0xff
000216   e187     jbset   0x187, 0         	JBSET	PFLAG,0
000217   7e0a     addra   0xa              	ADDRA	r0x1004
000218   a1e5     goto    0x1e5            	GOTO	_00108_DS_
                                           _00111_DS_
                                           ;	.line	29; "MC32P7311.c"	}
000219   000c     return                   	RETURN	
                                           ; exit point of _delay_ms
                                           
                                           
                                           ;	code size estimation:
                                           ;	  520+    0 =   520 instructions ( 1040 byte)
                                           
                                           	end
                                           ;--------------------------------------------------------
                                           ; File Created by SN-SDCC : SinoMCU ANSI-C Compiler
                                           ; Version 2.0.0 (Dec 11 2019) (MINGW32)
                                           ; This file was generated Fri Sep 20 17:22:15 2024
                                           ;--------------------------------------------------------
                                           ; MC32 port for the RISC core
                                           ;--------------------------------------------------------
                                           ;	.file	"MC32P7311.c"
                                           	list	p=7311
                                           	radix dec
                                           	include "7311.inc"
                                           ;--------------------------------------------------------
                                           ; external declarations
                                           ;--------------------------------------------------------
                                           	extern	_INDF0bits
                                           	extern	_INDF1bits
                                           	extern	_INDF2bits
                                           	extern	_HIBYTEbits
                                           	extern	_FSR0bits
                                           	extern	_FSR1bits
                                           	extern	_PCLbits
                                           	extern	_PFLAGbits
                                           	extern	_MCRbits
                                           	extern	_INDF3bits
                                           	extern	_INTEbits
                                           	extern	_INTFbits
                                           	extern	_DRVCRbits
                                           	extern	_KBCRbits
                                           	extern	_IOP0bits
                                           	extern	_OEP0bits
                                           	extern	_PUP0bits
                                           	extern	_PDP0bits
                                           	extern	_IOP1bits
                                           	extern	_OEP1bits
                                           	extern	_PUP1bits
                                           	extern	_PDP1bits
                                           	extern	_T0CRbits
                                           	extern	_T0CNTbits
                                           	extern	_T0LOADbits
                                           	extern	_T0DATAbits
                                           	extern	_T1CRbits
                                           	extern	_T1CNTbits
                                           	extern	_T1LOADbits
                                           	extern	_T1DATAbits
                                           	extern	_T2CRbits
                                           	extern	_T2CNTbits
                                           	extern	_T2LOADbits
                                           	extern	_T2DATAbits
                                           	extern	_T3CRbits
                                           	extern	_T3CNTbits
                                           	extern	_T3LOADbits
                                           	extern	_PWM0DEbits
                                           	extern	_PWM1DEbits
                                           	extern	_PWM2DEbits
                                           	extern	_PWMCR0bits
                                           	extern	_PWMCR1bits
                                           	extern	_OSCMbits
                                           	extern	_LVDCRbits
                                           	extern	_ADCR0bits
                                           	extern	_ADCR1bits
                                           	extern	_ADCR2bits
                                           	extern	_ADRHbits
                                           	extern	_ADRLbits
                                           	extern	_ANSEL0bits
                                           	extern	_ANSEL1bits
                                           	extern	_OSCCALHbits
                                           	extern	_OSCCALLbits
                                           	extern	_INDF0
                                           	extern	_INDF1
                                           	extern	_INDF2
                                           	extern	_HIBYTE
                                           	extern	_FSR0
                                           	extern	_FSR1
                                           	extern	_PCL
                                           	extern	_PFLAG
                                           	extern	_MCR
                                           	extern	_INDF3
                                           	extern	_INTE
                                           	extern	_INTF
                                           	extern	_DRVCR
                                           	extern	_KBCR
                                           	extern	_IOP0
                                           	extern	_OEP0
                                           	extern	_PUP0
                                           	extern	_PDP0
                                           	extern	_IOP1
                                           	extern	_OEP1
                                           	extern	_PUP1
                                           	extern	_PDP1
                                           	extern	_T0CR
                                           	extern	_T0CNT
                                           	extern	_T0LOAD
                                           	extern	_T0DATA
                                           	extern	_T1CR
                                           	extern	_T1CNT
                                           	extern	_T1LOAD
                                           	extern	_T1DATA
                                           	extern	_T2CR
                                           	extern	_T2CNT
                                           	extern	_T2LOAD
                                           	extern	_T2DATA
                                           	extern	_T3CR
                                           	extern	_T3CNT
                                           	extern	_T3LOAD
                                           	extern	_PWM0DE
                                           	extern	_PWM1DE
                                           	extern	_PWM2DE
                                           	extern	_PWMCR0
                                           	extern	_PWMCR1
                                           	extern	_OSCM
                                           	extern	_LVDCR
                                           	extern	_ADCR0
                                           	extern	_ADCR1
                                           	extern	_ADCR2
                                           	extern	_ADRH
                                           	extern	_ADRL
                                           	extern	_ANSEL0
                                           	extern	_ANSEL1
                                           	extern	_OSCCALH
                                           	extern	_OSCCALL
                                           ;--------------------------------------------------------
                                           ; global declarations
                                           ;--------------------------------------------------------
                                           	global	_Sys_Init
                                           	global	_IO_Init
                                           	global	_CLR_RAM
                                           	global	_delay_ms
                                           	global	_send_32bits_data_by_irsir
                                           	global	_timer0_pwm_config
                                           	global	_timer1_pwm_config
                                           	global	_timer1_pwm_open
                                           	global	_timer1_pwm_close
                                           	global	_timer2_pwm_config
                                           	global	_key_config
                                           	global	_adc_config
                                           	global	_adc_sel_pin
                                           	global	_adc_get_val
                                           	global	_key_scan
                                           	global	_key_handle
                                           	global	_main
                                           	global	_int_isr
                                           	global	_mode_flag
                                           	global	_key_press_flag
                                           	global	_i
                                           	global	_adc_val
                                           	global	_time_ms_cnt
                                           	global	_abuf
                                           	global	_statusbuf
                                           	global	_flag1
                                           	global	_charge_buf
                                           	global	_battery_refer_vol_buf
                                           
                                           	global STK06
                                           	global STK05
                                           	global STK04
                                           	global STK03
                                           	global STK02
                                           	global STK01
                                           	global STK00
                                           
                                           sharebank udata_ovr 0x0000
                                           STK06	res 1
                                           STK05	res 1
                                           STK04	res 1
                                           STK03	res 1
                                           STK02	res 1
                                           STK01	res 1
                                           STK00	res 1
                                           
                                           ;--------------------------------------------------------
                                           ; global definitions
                                           ;--------------------------------------------------------
                                           UD_MC32P7311_0	udata
                                           _mode_flag	res	1
                                           
                                           UD_MC32P7311_1	udata
                                           _key_press_flag	res	1
                                           
                                           UD_MC32P7311_2	udata
                                           _i	res	1
                                           
                                           UD_MC32P7311_3	udata
                                           _adc_val	res	2
                                           
                                           UD_MC32P7311_4	udata
                                           _time_ms_cnt	res	4
                                           
                                           UD_MC32P7311_5	udata
                                           _abuf	res	1
                                           
                                           UD_MC32P7311_6	udata
                                           _statusbuf	res	1
                                           
                                           UD_MC32P7311_7	udata
                                           _flag1	res	1
                                           
                                           ;--------------------------------------------------------
                                           ; absolute symbol definitions
                                           ;--------------------------------------------------------
                                           ;--------------------------------------------------------
                                           ; compiler-defined variables
                                           ;--------------------------------------------------------
                                           UDL_MC32P7311_0	udata
                                           r0x1007	res	1
                                           r0x1006	res	1
                                           r0x1005	res	1
                                           r0x1004	res	1
                                           r0x1008	res	1
                                           r0x1009	res	1
                                           r0x100A	res	1
                                           r0x100B	res	1
                                           r0x100C	res	1
                                           r0x100D	res	1
                                           r0x100E	res	1
                                           r0x100F	res	1
                                           r0x1021	res	1
                                           r0x1020	res	1
                                           r0x101F	res	1
                                           r0x101E	res	1
                                           r0x1022	res	1
                                           r0x1026	res	1
                                           r0x1025	res	1
                                           r0x1024	res	1
                                           r0x1023	res	1
                                           r0x1011	res	1
                                           r0x1012	res	1
                                           r0x1013	res	1
                                           r0x1014	res	1
                                           r0x1015	res	1
                                           r0x1016	res	1
                                           r0x1017	res	1
                                           r0x1018	res	1
                                           r0x1019	res	1
                                           r0x101B	res	1
                                           r0x101A	res	1
                                           r0x1010	res	1
                                           ;--------------------------------------------------------
                                           ; initialized data
                                           ;--------------------------------------------------------
                                           
                                           ID_MC32P7311_0	code
                                           _charge_buf
                                           	dw 0x2b
                                           	dw 0x00
                                           
                                           
                                           ID_MC32P7311_1	code
                                           _battery_refer_vol_buf
                                           	dw 0x00
                                           
                                           
                                           ;@Allocation info for local variables in function 'delay_ms'
                                           ;@delay_ms Sys_Init                  Allocated to registers ;size:2
                                           ;@delay_ms CLR_RAM                   Allocated to registers ;size:2
                                           ;@delay_ms IO_Init                   Allocated to registers ;size:2
                                           ;@delay_ms delay_ms                  Allocated to registers ;size:2
                                           ;@delay_ms INDF0bits                 Allocated to registers ;size:1
                                           ;@delay_ms INDF1bits                 Allocated to registers ;size:1
                                           ;@delay_ms INDF2bits                 Allocated to registers ;size:1
                                           ;@delay_ms HIBYTEbits                Allocated to registers ;size:1
                                           ;@delay_ms FSR0bits                  Allocated to registers ;size:1
                                           ;@delay_ms FSR1bits                  Allocated to registers ;size:1
                                           ;@delay_ms PCLbits                   Allocated to registers ;size:1
                                           ;@delay_ms PFLAGbits                 Allocated to registers ;size:1
                                           ;@delay_ms MCRbits                   Allocated to registers ;size:1
                                           ;@delay_ms INDF3bits                 Allocated to registers ;size:1
                                           ;@delay_ms INTEbits                  Allocated to registers ;size:1
                                           ;@delay_ms INTFbits                  Allocated to registers ;size:1
                                           ;@delay_ms DRVCRbits                 Allocated to registers ;size:1
                                           ;@delay_ms KBCRbits                  Allocated to registers ;size:1
                                           ;@delay_ms IOP0bits                  Allocated to registers ;size:1
                                           ;@delay_ms OEP0bits                  Allocated to registers ;size:1
                                           ;@delay_ms PUP0bits                  Allocated to registers ;size:1
                                           ;@delay_ms PDP0bits                  Allocated to registers ;size:1
                                           ;@delay_ms IOP1bits                  Allocated to registers ;size:1
                                           ;@delay_ms OEP1bits                  Allocated to registers ;size:1
                                           ;@delay_ms PUP1bits                  Allocated to registers ;size:1
                                           ;@delay_ms PDP1bits                  Allocated to registers ;size:1
                                           ;@delay_ms T0CRbits                  Allocated to registers ;size:1
                                           ;@delay_ms T0CNTbits                 Allocated to registers ;size:1
                                           ;@delay_ms T0LOADbits                Allocated to registers ;size:1
                                           ;@delay_ms T0DATAbits                Allocated to registers ;size:1
                                           ;@delay_ms T1CRbits                  Allocated to registers ;size:1
                                           ;@delay_ms T1CNTbits                 Allocated to registers ;size:1
                                           ;@delay_ms T1LOADbits                Allocated to registers ;size:1
                                           ;@delay_ms T1DATAbits                Allocated to registers ;size:1
                                           ;@delay_ms T2CRbits                  Allocated to registers ;size:1
                                           ;@delay_ms T2CNTbits                 Allocated to registers ;size:1
                                           ;@delay_ms T2LOADbits                Allocated to registers ;size:1
                                           ;@delay_ms T2DATAbits                Allocated to registers ;size:1
                                           ;@delay_ms T3CRbits                  Allocated to registers ;size:1
                                           ;@delay_ms T3CNTbits                 Allocated to registers ;size:1
                                           ;@delay_ms T3LOADbits                Allocated to registers ;size:1
                                           ;@delay_ms PWM0DEbits                Allocated to registers ;size:1
                                           ;@delay_ms PWM1DEbits                Allocated to registers ;size:1
                                           ;@delay_ms PWM2DEbits                Allocated to registers ;size:1
                                           ;@delay_ms PWMCR0bits                Allocated to registers ;size:1
                                           ;@delay_ms PWMCR1bits                Allocated to registers ;size:1
                                           ;@delay_ms OSCMbits                  Allocated to registers ;size:1
                                           ;@delay_ms LVDCRbits                 Allocated to registers ;size:1
                                           ;@delay_ms ADCR0bits                 Allocated to registers ;size:1
                                           ;@delay_ms ADCR1bits                 Allocated to registers ;size:1
                                           ;@delay_ms ADCR2bits                 Allocated to registers ;size:1
                                           ;@delay_ms ADRHbits                  Allocated to registers ;size:1
                                           ;@delay_ms ADRLbits                  Allocated to registers ;size:1
                                           ;@delay_ms ANSEL0bits                Allocated to registers ;size:1
                                           ;@delay_ms ANSEL1bits                Allocated to registers ;size:1
                                           ;@delay_ms OSCCALHbits               Allocated to registers ;size:1
                                           ;@delay_ms OSCCALLbits               Allocated to registers ;size:1
                                           ;@delay_ms mode_flag                 Allocated to registers ;size:1
                                           ;@delay_ms key_press_flag            Allocated to registers ;size:1
                                           ;@delay_ms i                         Allocated to registers ;size:1
                                           ;@delay_ms adc_val                   Allocated to registers ;size:2
                                           ;@delay_ms time_ms_cnt               Allocated to registers ;size:4
                                           ;@delay_ms abuf                      Allocated to registers ;size:1
                                           ;@delay_ms statusbuf                 Allocated to registers ;size:1
                                           ;@delay_ms flag1                     Allocated to registers ;size:1
                                           ;@delay_ms xms                       Allocated to registers ;size:4
                                           ;@delay_ms i                         Allocated to registers r0x1008 r0x1009 r0x100A r0x100B ;size:4
                                           ;@delay_ms INDF0                     Allocated to registers ;size:1
                                           ;@delay_ms INDF1                     Allocated to registers ;size:1
                                           ;@delay_ms INDF2                     Allocated to registers ;size:1
                                           ;@delay_ms HIBYTE                    Allocated to registers ;size:1
                                           ;@delay_ms FSR0                      Allocated to registers ;size:1
                                           ;@delay_ms FSR1                      Allocated to registers ;size:1
                                           ;@delay_ms PCL                       Allocated to registers ;size:1
                                           ;@delay_ms PFLAG                     Allocated to registers ;size:1
                                           ;@delay_ms MCR                       Allocated to registers ;size:1
                                           ;@delay_ms INDF3                     Allocated to registers ;size:1
                                           ;@delay_ms INTE                      Allocated to registers ;size:1
                                           ;@delay_ms INTF                      Allocated to registers ;size:1
                                           ;@delay_ms DRVCR                     Allocated to registers ;size:1
                                           ;@delay_ms KBCR                      Allocated to registers ;size:1
                                           ;@delay_ms IOP0                      Allocated to registers ;size:1
                                           ;@delay_ms OEP0                      Allocated to registers ;size:1
                                           ;@delay_ms PUP0                      Allocated to registers ;size:1
                                           ;@delay_ms PDP0                      Allocated to registers ;size:1
                                           ;@delay_ms IOP1                      Allocated to registers ;size:1
                                           ;@delay_ms OEP1                      Allocated to registers ;size:1
                                           ;@delay_ms PUP1                      Allocated to registers ;size:1
                                           ;@delay_ms PDP1                      Allocated to registers ;size:1
                                           ;@delay_ms T0CR                      Allocated to registers ;size:1
                                           ;@delay_ms T0CNT                     Allocated to registers ;size:1
                                           ;@delay_ms T0LOAD                    Allocated to registers ;size:1
                                           ;@delay_ms T0DATA                    Allocated to registers ;size:1
                                           ;@delay_ms T1CR                      Allocated to registers ;size:1
                                           ;@delay_ms T1CNT                     Allocated to registers ;size:1
                                           ;@delay_ms T1LOAD                    Allocated to registers ;size:1
                                           ;@delay_ms T1DATA                    Allocated to registers ;size:1
                                           ;@delay_ms T2CR                      Allocated to registers ;size:1
                                           ;@delay_ms T2CNT                     Allocated to registers ;size:1
                                           ;@delay_ms T2LOAD                    Allocated to registers ;size:1
                                           ;@delay_ms T2DATA                    Allocated to registers ;size:1
                                           ;@delay_ms T3CR                      Allocated to registers ;size:1
                                           ;@delay_ms T3CNT                     Allocated to registers ;size:1
                                           ;@delay_ms T3LOAD                    Allocated to registers ;size:1
                                           ;@delay_ms PWM0DE                    Allocated to registers ;size:1
                                           ;@delay_ms PWM1DE                    Allocated to registers ;size:1
                                           ;@delay_ms PWM2DE                    Allocated to registers ;size:1
                                           ;@delay_ms PWMCR0                    Allocated to registers ;size:1
                                           ;@delay_ms PWMCR1                    Allocated to registers ;size:1
                                           ;@delay_ms OSCM                      Allocated to registers ;size:1
                                           ;@delay_ms LVDCR                     Allocated to registers ;size:1
                                           ;@delay_ms ADCR0                     Allocated to registers ;size:1
                                           ;@delay_ms ADCR1                     Allocated to registers ;size:1
                                           ;@delay_ms ADCR2                     Allocated to registers ;size:1
                                           ;@delay_ms ADRH                      Allocated to registers ;size:1
                                           ;@delay_ms ADRL                      Allocated to registers ;size:1
                                           ;@delay_ms ANSEL0                    Allocated to registers ;size:1
                                           ;@delay_ms ANSEL1                    Allocated to registers ;size:1
                                           ;@delay_ms OSCCALH                   Allocated to registers ;size:1
                                           ;@delay_ms OSCCALL                   Allocated to registers ;size:1
                                           ;@end Allocation info for local variables in function 'delay_ms';
                                           ;@Allocation info for local variables in function 'send_32bits_data_by_irsir'
                                           ;@send_32bits_data_by_irsir send_data                 Allocated to registers r0x1021 r0x1020 r0x101F r0x101E ;size:4
                                           ;@send_32bits_data_by_irsir i                         Allocated to registers r0x1022 ;size:1
                                           ;@end Allocation info for local variables in function 'send_32bits_data_by_irsir';
                                           ;@Allocation info for local variables in function 'CLR_RAM'
                                           ;@end Allocation info for local variables in function 'CLR_RAM';
                                           ;@Allocation info for local variables in function 'IO_Init'
                                           ;@end Allocation info for local variables in function 'IO_Init';
                                           ;@Allocation info for local variables in function 'timer0_pwm_config'
                                           ;@end Allocation info for local variables in function 'timer0_pwm_config';
                                           ;@Allocation info for local variables in function 'timer1_pwm_config'
                                           ;@end Allocation info for local variables in function 'timer1_pwm_config';
                                           ;@Allocation info for local variables in function 'timer1_pwm_open'
                                           ;@end Allocation info for local variables in function 'timer1_pwm_open';
                                           ;@Allocation info for local variables in function 'timer1_pwm_close'
                                           ;@end Allocation info for local variables in function 'timer1_pwm_close';
                                           ;@Allocation info for local variables in function 'timer2_pwm_config'
                                           ;@end Allocation info for local variables in function 'timer2_pwm_config';
                                           ;@Allocation info for local variables in function 'key_config'
                                           ;@end Allocation info for local variables in function 'key_config';
                                           ;@Allocation info for local variables in function 'adc_config'
                                           ;@end Allocation info for local variables in function 'adc_config';
                                           ;@Allocation info for local variables in function 'adc_sel_pin'
                                           ;@adc_sel_pin adc_pin                   Allocated to registers ;size:1
                                           ;@end Allocation info for local variables in function 'adc_sel_pin';
                                           ;@Allocation info for local variables in function 'adc_get_val'
                                           ;@adc_get_val cnt                       Allocated to registers r0x1017 ;size:1
                                           ;@adc_get_val g_temp_value              Allocated to registers r0x1018 r0x1019 ;size:2
                                           ;@adc_get_val g_tmpbuff                 Allocated to registers r0x1013 r0x1014 ;size:2
                                           ;@adc_get_val g_adcmax                  Allocated to registers r0x1013 r0x1014 ;size:2
                                           ;@adc_get_val g_adcmin                  Allocated to registers r0x1015 r0x1016 ;size:2
                                           ;@end Allocation info for local variables in function 'adc_get_val';
                                           ;@Allocation info for local variables in function 'Sys_Init'
                                           ;@end Allocation info for local variables in function 'Sys_Init';
                                           ;@Allocation info for local variables in function 'key_scan'
                                           ;@key_scan cnt                       Allocated to registers r0x1010 ;size:1
                                           ;@end Allocation info for local variables in function 'key_scan';
                                           ;@Allocation info for local variables in function 'key_handle'
                                           ;@end Allocation info for local variables in function 'key_handle';
                                           ;@Allocation info for local variables in function 'main'
                                           ;@end Allocation info for local variables in function 'main';
                                           ;@Allocation info for local variables in function 'int_isr'
                                           ;@end Allocation info for local variables in function 'int_isr';
                                           
                                           ;--------------------------------------------------------
                                           ; overlayable items in internal ram 
                                           ;--------------------------------------------------------
                                           ;	udata_ovr
                                           ;--------------------------------------------------------
                                           ; reset vector 
                                           ;--------------------------------------------------------
                                           STARTUP	code 0x0000
                                           	goto	_main
                                           ;--------------------------------------------------------
                                           ; interrupt and initialization code
                                           ;--------------------------------------------------------
                                           c_interrupt	code	0x8
                                           __sdcc_interrupt
                                           ;***
                                           ;  pBlock Stats: dbName = I
                                           ;***
                                           ;entry:  _int_isr	;Function start
                                           ; 0 exit points
                                           ;; Starting pCode block
                                           _int_isr	;Function start
                                           ; 0 exit points
                                           ;	.line	527; "MC32P7311.c"	__endasm;
                                           	;
                                           	movra	_abuf;
                                           	swapar	_PFLAG;
                                           	movra	_statusbuf;
                                           	
                                           ;	.line	574; "MC32P7311.c"	__endasm;
                                           	;
                                           	swapar	_statusbuf;
                                           	movra	_PFLAG;
                                           	swapr	_abuf;
                                           	swapar	_abuf;
                                           	
                                           END_OF_INTERRUPT
                                           ;	.line	575; "MC32P7311.c"	}
                                           	RETIE	
                                           
                                           ;--------------------------------------------------------
                                           ; code
                                           ;--------------------------------------------------------
                                           code_MC32P7311	code
                                           ;***
                                           ;  pBlock Stats: dbName = M
                                           ;***
                                           ;entry:  _main	;Function start
                                           ; 2 exit points
                                           ;has an exit
                                           ;functions called:
                                           ;   _Sys_Init
                                           ;   _key_scan
                                           ;   _key_handle
                                           ;   _Sys_Init
                                           ;   _key_scan
                                           ;   _key_handle
                                           ;; Starting pCode block
                                           _main	;Function start
                                           ; 2 exit points
                                           ;	.line	495; "MC32P7311.c"	Sys_Init();
                                           	CALL	_Sys_Init
                                           _00341_DS_
                                           ;	.line	512; "MC32P7311.c"	key_scan();
                                           	CALL	_key_scan
                                           ;	.line	513; "MC32P7311.c"	key_handle();
                                           	CALL	_key_handle
                                           ;	.line	517; "MC32P7311.c"	__endasm;
                                           	;
                                           	CLRWDT;
                                           	
                                           	GOTO	_00341_DS_
                                           ;	.line	519; "MC32P7311.c"	}
                                           	RETURN	
                                           ; exit point of _main
                                           
                                           ;***
                                           ;  pBlock Stats: dbName = C
                                           ;***
                                           ;entry:  _key_handle	;Function start
                                           ; 2 exit points
                                           ;has an exit
                                           ;1 compiler assigned register :
                                           ;   r0x1004
                                           ;; Starting pCode block
                                           _key_handle	;Function start
                                           ; 2 exit points
                                           ;	.line	398; "MC32P7311.c"	if (key_press_flag)
                                           	MOVAI	0x00
                                           	ORAR	_key_press_flag
                                           	JBCLR	PFLAG,2
                                           	GOTO	_00335_DS_
                                           ;	.line	401; "MC32P7311.c"	switch (key_press_flag)
                                           	MOVAR	_key_press_flag
                                           	MOVRA	r0x1004
                                           ;;unsigned compare: left < lit(0x1=1), size=1
                                           	MOVAI	0x01
                                           	RSUBAR	r0x1004
                                           	JBSET	PFLAG,0
                                           	GOTO	_00332_DS_
                                           ;;genSkipc:3291: created from rifx:013B5EFC
                                           ;;swapping arguments (AOP_TYPEs 1/2)
                                           ;;unsigned compare: left >= lit(0x4=4), size=1
                                           	MOVAI	0x04
                                           	RSUBAR	r0x1004
                                           	JBCLR	PFLAG,0
                                           	GOTO	_00332_DS_
                                           ;;genSkipc:3291: created from rifx:013B5EFC
                                           	DECR	r0x1004
                                           	MOVAR	r0x1004
                                           	ADDRA	PCL
                                           	GOTO	_00295_DS_
                                           	GOTO	_00307_DS_
                                           	GOTO	_00318_DS_
                                           _00295_DS_
                                           ;	.line	404; "MC32P7311.c"	if (FLAG_IS_DEVICE_OPEN)
                                           	JBSET	_flag1,0
                                           	GOTO	_00332_DS_
                                           ;	.line	407; "MC32P7311.c"	if (0 == FLAG_IS_HEATING)
                                           	JBCLR	_flag1,1
                                           	GOTO	_00299_DS_
                                           ;	.line	409; "MC32P7311.c"	HEATING_ON(); // 打开加热
                                           	BSET	_IOP1bits,2
                                           ;	.line	410; "MC32P7311.c"	FLAG_IS_HEATING = 1;
                                           	BSET	_flag1,1
                                           	GOTO	_00332_DS_
                                           _00299_DS_
                                           ;	.line	414; "MC32P7311.c"	HEATING_OFF(); // 关闭加热
                                           	BCLR	_IOP1bits,2
                                           ;	.line	415; "MC32P7311.c"	FLAG_IS_HEATING = 0;
                                           	BCLR	_flag1,1
                                           ;	.line	418; "MC32P7311.c"	break;
                                           	GOTO	_00332_DS_
                                           _00307_DS_
                                           ;	.line	422; "MC32P7311.c"	if (FLAG_IS_DEVICE_OPEN)
                                           	JBSET	_flag1,0
                                           	GOTO	_00332_DS_
                                           ;	.line	425; "MC32P7311.c"	if (MODE_1 == mode_flag)
                                           	MOVAI	0x00
                                           	ORAR	_mode_flag
                                           	JBSET	PFLAG,2
                                           	GOTO	_00314_DS_
                                           ;	.line	428; "MC32P7311.c"	T0DATA = 255;
                                           	MOVAI	0xff
                                           	MOVRA	_T0DATA
                                           ;	.line	429; "MC32P7311.c"	T1DATA = 255; // 100%占空比（确保大于TxLOAD的值就可以）
                                           	MOVAI	0xff
                                           	MOVRA	_T1DATA
                                           ;	.line	431; "MC32P7311.c"	mode_flag = MODE_2;
                                           	MOVAI	0x01
                                           	MOVRA	_mode_flag
                                           	GOTO	_00332_DS_
                                           _00314_DS_
                                           ;	.line	433; "MC32P7311.c"	else if (MODE_2 == mode_flag)
                                           	MOVAR	_mode_flag
                                           	XORAI	0x01
                                           	JBSET	PFLAG,2
                                           	GOTO	_00311_DS_
                                           ;	.line	436; "MC32P7311.c"	T0DATA = 103;
                                           	MOVAI	0x67
                                           	MOVRA	_T0DATA
                                           ;	.line	437; "MC32P7311.c"	T1DATA = 103; // 80.5%占空比
                                           	MOVAI	0x67
                                           	MOVRA	_T1DATA
                                           ;	.line	439; "MC32P7311.c"	mode_flag = MODE_3;
                                           	MOVAI	0x02
                                           	MOVRA	_mode_flag
                                           	GOTO	_00332_DS_
                                           _00311_DS_
                                           ;	.line	441; "MC32P7311.c"	else if (MODE_3 == mode_flag)
                                           	MOVAR	_mode_flag
                                           	XORAI	0x02
                                           	JBSET	PFLAG,2
                                           	GOTO	_00332_DS_
                                           ;	.line	444; "MC32P7311.c"	T0DATA = 115;
                                           	MOVAI	0x73
                                           	MOVRA	_T0DATA
                                           ;	.line	445; "MC32P7311.c"	T1DATA = 115; // 89.9%占空比
                                           	MOVAI	0x73
                                           	MOVRA	_T1DATA
                                           ;	.line	447; "MC32P7311.c"	mode_flag = MODE_1;
                                           	CLRR	_mode_flag
                                           ;	.line	450; "MC32P7311.c"	break;
                                           	GOTO	_00332_DS_
                                           _00318_DS_
                                           ;	.line	453; "MC32P7311.c"	if (0 == FLAG_IS_DEVICE_OPEN)
                                           	JBCLR	_flag1,0
                                           	GOTO	_00329_DS_
                                           ;	.line	456; "MC32P7311.c"	LED_WORKING_ON(); // 打开电源指示灯
                                           	BCLR	_IOP1bits,4
                                           ;	.line	457; "MC32P7311.c"	FLAG_IS_DEVICE_OPEN = 1;
                                           	BSET	_flag1,0
                                           ;	.line	460; "MC32P7311.c"	T0DATA = 115;
                                           	MOVAI	0x73
                                           	MOVRA	_T0DATA
                                           ;	.line	461; "MC32P7311.c"	T1DATA = 115; // 约为 89.9%
                                           	MOVAI	0x73
                                           	MOVRA	_T1DATA
                                           ;	.line	464; "MC32P7311.c"	PWM0OE = 1;
                                           	BSET	_T0CRbits,6
                                           	GOTO	_00332_DS_
                                           _00329_DS_
                                           ;	.line	469; "MC32P7311.c"	FLAG_IS_DEVICE_OPEN = 0;
                                           	BCLR	_flag1,0
                                           ;	.line	470; "MC32P7311.c"	LED_WORKING_OFF(); // 关闭电源指示灯
                                           	BSET	_IOP1bits,4
                                           ;	.line	471; "MC32P7311.c"	HEATING_OFF(); // 关闭加热
                                           	BCLR	_IOP1bits,2
                                           ;	.line	474; "MC32P7311.c"	PWM0OE = 0;
                                           	BCLR	_T0CRbits,6
                                           ;	.line	475; "MC32P7311.c"	PWM1OE = 0;
                                           	BCLR	_T1CRbits,6
                                           _00332_DS_
                                           ;	.line	483; "MC32P7311.c"	key_press_flag = KEY_NONE;
                                           	CLRR	_key_press_flag
                                           _00335_DS_
                                           ;	.line	485; "MC32P7311.c"	}
                                           	RETURN	
                                           ; exit point of _key_handle
                                           
                                           ;***
                                           ;  pBlock Stats: dbName = C
                                           ;***
                                           ;entry:  _key_scan	;Function start
                                           ; 2 exit points
                                           ;has an exit
                                           ;functions called:
                                           ;   _delay_ms
                                           ;   _delay_ms
                                           ;   _delay_ms
                                           ;   _delay_ms
                                           ;   _delay_ms
                                           ;   _delay_ms
                                           ;4 compiler assigned registers:
                                           ;   r0x1010
                                           ;   STK02
                                           ;   STK01
                                           ;   STK00
                                           ;; Starting pCode block
                                           _key_scan	;Function start
                                           ; 2 exit points
                                           ;	.line	336; "MC32P7311.c"	if (0 == KEY_HEAT_PIN)
                                           	JBCLR	_IOP0bits,0
                                           	GOTO	_00279_DS_
                                           ;	.line	338; "MC32P7311.c"	for (i = 0; i < 20; i++)
                                           	CLRR	_i
                                           	CLRR	r0x1010
                                           ;;unsigned compare: left < lit(0x14=20), size=1
                                           _00282_DS_
                                           	MOVAI	0x14
                                           	RSUBAR	_i
                                           	JBCLR	PFLAG,0
                                           	GOTO	_00251_DS_
                                           ;;genSkipc:3291: created from rifx:013B5EFC
                                           ;	.line	340; "MC32P7311.c"	if (0 == KEY_HEAT_PIN)
                                           	JBCLR	_IOP0bits,0
                                           	GOTO	_00250_DS_
                                           ;	.line	342; "MC32P7311.c"	cnt++;
                                           	INCR	r0x1010
                                           _00250_DS_
                                           ;	.line	344; "MC32P7311.c"	delay_ms(1);
                                           	MOVAI	0x01
                                           	MOVRA	STK02
                                           	MOVAI	0x00
                                           	MOVRA	STK01
                                           	MOVAI	0x00
                                           	MOVRA	STK00
                                           	MOVAI	0x00
                                           	CALL	_delay_ms
                                           ;	.line	338; "MC32P7311.c"	for (i = 0; i < 20; i++)
                                           	INCR	_i
                                           	GOTO	_00282_DS_
                                           ;;unsigned compare: left < lit(0xF=15), size=1
                                           _00251_DS_
                                           ;	.line	347; "MC32P7311.c"	if (cnt >= 15)
                                           	MOVAI	0x0f
                                           	RSUBAR	r0x1010
                                           	JBSET	PFLAG,0
                                           	GOTO	_00254_DS_
                                           ;;genSkipc:3291: created from rifx:013B5EFC
                                           ;	.line	349; "MC32P7311.c"	key_press_flag = KEY_HEAT_PRESS;
                                           	MOVAI	0x01
                                           	MOVRA	_key_press_flag
                                           _00254_DS_
                                           ;	.line	352; "MC32P7311.c"	while (0 == KEY_HEAT_PIN)
                                           	JBCLR	_IOP0bits,0
                                           	GOTO	_00290_DS_
                                           	GOTO	_00254_DS_
                                           _00279_DS_
                                           ;	.line	355; "MC32P7311.c"	else if (0 == KEY_CHANGE_PIN)
                                           	JBCLR	_IOP0bits,1
                                           	GOTO	_00276_DS_
                                           ;	.line	357; "MC32P7311.c"	for (i = 0; i < 20; i++)
                                           	CLRR	_i
                                           	CLRR	r0x1010
                                           ;;unsigned compare: left < lit(0x14=20), size=1
                                           _00285_DS_
                                           	MOVAI	0x14
                                           	RSUBAR	_i
                                           	JBCLR	PFLAG,0
                                           	GOTO	_00259_DS_
                                           ;;genSkipc:3291: created from rifx:013B5EFC
                                           ;	.line	359; "MC32P7311.c"	if (0 == KEY_CHANGE_PIN)
                                           	JBCLR	_IOP0bits,1
                                           	GOTO	_00258_DS_
                                           ;	.line	361; "MC32P7311.c"	cnt++;
                                           	INCR	r0x1010
                                           _00258_DS_
                                           ;	.line	363; "MC32P7311.c"	delay_ms(1);
                                           	MOVAI	0x01
                                           	MOVRA	STK02
                                           	MOVAI	0x00
                                           	MOVRA	STK01
                                           	MOVAI	0x00
                                           	MOVRA	STK00
                                           	MOVAI	0x00
                                           	CALL	_delay_ms
                                           ;	.line	357; "MC32P7311.c"	for (i = 0; i < 20; i++)
                                           	INCR	_i
                                           	GOTO	_00285_DS_
                                           ;;unsigned compare: left < lit(0xF=15), size=1
                                           _00259_DS_
                                           ;	.line	366; "MC32P7311.c"	if (cnt >= 15)
                                           	MOVAI	0x0f
                                           	RSUBAR	r0x1010
                                           	JBSET	PFLAG,0
                                           	GOTO	_00262_DS_
                                           ;;genSkipc:3291: created from rifx:013B5EFC
                                           ;	.line	368; "MC32P7311.c"	key_press_flag = KEY_CHANGE_PRESS;
                                           	MOVAI	0x02
                                           	MOVRA	_key_press_flag
                                           _00262_DS_
                                           ;	.line	371; "MC32P7311.c"	while (0 == KEY_CHANGE_PIN)
                                           	JBCLR	_IOP0bits,1
                                           	GOTO	_00290_DS_
                                           	GOTO	_00262_DS_
                                           _00276_DS_
                                           ;	.line	374; "MC32P7311.c"	else if (0 == KEY_POWER_PIN)
                                           	JBCLR	_IOP0bits,5
                                           	GOTO	_00290_DS_
                                           ;	.line	376; "MC32P7311.c"	for (i = 0; i < 20; i++)
                                           	CLRR	_i
                                           	CLRR	r0x1010
                                           ;;unsigned compare: left < lit(0x14=20), size=1
                                           _00288_DS_
                                           	MOVAI	0x14
                                           	RSUBAR	_i
                                           	JBCLR	PFLAG,0
                                           	GOTO	_00267_DS_
                                           ;;genSkipc:3291: created from rifx:013B5EFC
                                           ;	.line	378; "MC32P7311.c"	if (0 == KEY_POWER_PIN)
                                           	JBCLR	_IOP0bits,5
                                           	GOTO	_00266_DS_
                                           ;	.line	380; "MC32P7311.c"	cnt++;
                                           	INCR	r0x1010
                                           _00266_DS_
                                           ;	.line	382; "MC32P7311.c"	delay_ms(1);
                                           	MOVAI	0x01
                                           	MOVRA	STK02
                                           	MOVAI	0x00
                                           	MOVRA	STK01
                                           	MOVAI	0x00
                                           	MOVRA	STK00
                                           	MOVAI	0x00
                                           	CALL	_delay_ms
                                           ;	.line	376; "MC32P7311.c"	for (i = 0; i < 20; i++)
                                           	INCR	_i
                                           	GOTO	_00288_DS_
                                           ;;unsigned compare: left < lit(0xF=15), size=1
                                           _00267_DS_
                                           ;	.line	385; "MC32P7311.c"	if (cnt >= 15)
                                           	MOVAI	0x0f
                                           	RSUBAR	r0x1010
                                           	JBSET	PFLAG,0
                                           	GOTO	_00270_DS_
                                           ;;genSkipc:3291: created from rifx:013B5EFC
                                           ;	.line	387; "MC32P7311.c"	key_press_flag = KEY_POWER_PRESS;
                                           	MOVAI	0x03
                                           	MOVRA	_key_press_flag
                                           _00270_DS_
                                           ;	.line	390; "MC32P7311.c"	while (0 == KEY_POWER_PIN)
                                           	JBSET	_IOP0bits,5
                                           	GOTO	_00270_DS_
                                           _00290_DS_
                                           ;	.line	393; "MC32P7311.c"	}
                                           	RETURN	
                                           ; exit point of _key_scan
                                           
                                           ;***
                                           ;  pBlock Stats: dbName = C
                                           ;***
                                           ;entry:  _Sys_Init	;Function start
                                           ; 2 exit points
                                           ;has an exit
                                           ;functions called:
                                           ;   _CLR_RAM
                                           ;   _IO_Init
                                           ;   _timer0_pwm_config
                                           ;   _timer1_pwm_config
                                           ;   _timer2_pwm_config
                                           ;   _key_config
                                           ;   _adc_config
                                           ;   _CLR_RAM
                                           ;   _IO_Init
                                           ;   _timer0_pwm_config
                                           ;   _timer1_pwm_config
                                           ;   _timer2_pwm_config
                                           ;   _key_config
                                           ;   _adc_config
                                           ;; Starting pCode block
                                           _Sys_Init	;Function start
                                           ; 2 exit points
                                           ;	.line	309; "MC32P7311.c"	GIE = 0;
                                           	BCLR	_MCRbits,7
                                           ;	.line	310; "MC32P7311.c"	CLR_RAM();
                                           	CALL	_CLR_RAM
                                           ;	.line	311; "MC32P7311.c"	IO_Init();
                                           	CALL	_IO_Init
                                           ;	.line	313; "MC32P7311.c"	timer0_pwm_config();
                                           	CALL	_timer0_pwm_config
                                           ;	.line	314; "MC32P7311.c"	timer1_pwm_config();
                                           	CALL	_timer1_pwm_config
                                           ;	.line	315; "MC32P7311.c"	timer2_pwm_config();
                                           	CALL	_timer2_pwm_config
                                           ;	.line	317; "MC32P7311.c"	key_config();
                                           	CALL	_key_config
                                           ;	.line	318; "MC32P7311.c"	adc_config();
                                           	CALL	_adc_config
                                           ;	.line	320; "MC32P7311.c"	GIE = 1;
                                           	BSET	_MCRbits,7
                                           ;	.line	321; "MC32P7311.c"	}
                                           	RETURN	
                                           ; exit point of _Sys_Init
                                           
                                           ;***
                                           ;  pBlock Stats: dbName = C
                                           ;***
                                           ;entry:  _adc_get_val	;Function start
                                           ; 2 exit points
                                           ;has an exit
                                           ;14 compiler assigned registers:
                                           ;   r0x1011
                                           ;   r0x1012
                                           ;   r0x1013
                                           ;   r0x1014
                                           ;   r0x1015
                                           ;   r0x1016
                                           ;   r0x1017
                                           ;   r0x1018
                                           ;   r0x1019
                                           ;   r0x101A
                                           ;   r0x101B
                                           ;   r0x101C
                                           ;   r0x101D
                                           ;   STK00
                                           ;; Starting pCode block
                                           _adc_get_val	;Function start
                                           ; 2 exit points
                                           ;	.line	274; "MC32P7311.c"	u16 g_tmpbuff = 0;
                                           	CLRR	r0x1011
                                           	CLRR	r0x1012
                                           ;	.line	275; "MC32P7311.c"	u16 g_adcmax = 0;
                                           	CLRR	r0x1013
                                           	CLRR	r0x1014
                                           ;	.line	276; "MC32P7311.c"	u16 g_adcmin = 0xFFFF;
                                           	MOVAI	0xff
                                           	MOVRA	r0x1015
                                           	MOVRA	r0x1016
                                           ;	.line	279; "MC32P7311.c"	for (cnt = 0; cnt < 20; cnt++)
                                           	CLRR	r0x1017
                                           _00199_DS_
                                           ;	.line	281; "MC32P7311.c"	ADEOC = 0; // 清除ADC转换完成标志位，启动AD转换
                                           	BCLR	_ADCR0bits,1
                                           _00188_DS_
                                           ;	.line	282; "MC32P7311.c"	while (!ADEOC)
                                           	JBSET	_ADCR0bits,1
                                           	GOTO	_00188_DS_
                                           ;	.line	284; "MC32P7311.c"	g_temp_value = ADRH; // 取出转换后的值
                                           	MOVAR	_ADRH
                                           	MOVRA	r0x1018
                                           	CLRR	r0x1019
                                           ;	.line	285; "MC32P7311.c"	g_temp_value = g_temp_value << 4 | (ADRL & 0x0F);
                                           	SWAPAR	r0x1019
                                           	ANDAI	0xf0
                                           	MOVRA	r0x101A
                                           	SWAPAR	r0x1018
                                           	MOVRA	r0x101B
                                           	ANDAI	0x0f
                                           	ORRA	r0x101A
                                           	XORRA	r0x101B
                                           	MOVAR	_ADRL
                                           	MOVRA	r0x1018
                                           	CLRR	r0x1019
                                           	MOVAI	0x0f
                                           	ANDRA	r0x1018
                                           	CLRR	r0x1019
                                           ;;101	MOVAR	r0x1018
                                           ;;99	MOVRA	r0x101C
                                           ;;104	MOVAR	r0x1019
                                           ;;102	MOVRA	r0x101D
                                           ;;100	MOVAR	r0x101C
                                           	MOVAR	r0x1018
                                           	ORAR	r0x101B
                                           	MOVRA	r0x1018
                                           ;;103	MOVAR	r0x101D
                                           	MOVAI	0x00
                                           	ORAR	r0x101A
                                           	MOVRA	r0x1019
                                           ;;unsigned compare: left < lit(0x2=2), size=1
                                           ;	.line	286; "MC32P7311.c"	if (cnt < 2)
                                           	MOVAI	0x02
                                           	RSUBAR	r0x1017
                                           	JBSET	PFLAG,0
                                           	GOTO	_00197_DS_
                                           ;;genSkipc:3291: created from rifx:013B5EFC
                                           ;	.line	288; "MC32P7311.c"	if (g_temp_value > g_adcmax)
                                           	MOVAR	r0x1019
                                           	RSUBAR	r0x1014
                                           	JBSET	PFLAG,2
                                           	GOTO	_00239_DS_
                                           	MOVAR	r0x1018
                                           	RSUBAR	r0x1013
                                           _00239_DS_
                                           	JBCLR	PFLAG,0
                                           	GOTO	_00194_DS_
                                           ;;genSkipc:3291: created from rifx:013B5EFC
                                           ;	.line	289; "MC32P7311.c"	g_adcmax = g_temp_value; // 最大
                                           	MOVAR	r0x1018
                                           	MOVRA	r0x1013
                                           	MOVAR	r0x1019
                                           	MOVRA	r0x1014
                                           _00194_DS_
                                           ;	.line	290; "MC32P7311.c"	if (g_temp_value < g_adcmin)
                                           	MOVAR	r0x1016
                                           	RSUBAR	r0x1019
                                           	JBSET	PFLAG,2
                                           	GOTO	_00240_DS_
                                           	MOVAR	r0x1015
                                           	RSUBAR	r0x1018
                                           _00240_DS_
                                           	JBCLR	PFLAG,0
                                           	GOTO	_00196_DS_
                                           ;;genSkipc:3291: created from rifx:013B5EFC
                                           ;	.line	291; "MC32P7311.c"	g_adcmin = g_temp_value; // 最小
                                           	MOVAR	r0x1018
                                           	MOVRA	r0x1015
                                           	MOVAR	r0x1019
                                           	MOVRA	r0x1016
                                           _00196_DS_
                                           ;	.line	292; "MC32P7311.c"	g_tmpbuff += g_temp_value;
                                           	MOVAR	r0x1018
                                           	ADDRA	r0x1011
                                           	MOVAR	r0x1019
                                           	JBCLR	PFLAG,0
                                           	JZAR	r0x1019
                                           	ADDRA	r0x1012
                                           _00197_DS_
                                           ;	.line	279; "MC32P7311.c"	for (cnt = 0; cnt < 20; cnt++)
                                           	INCR	r0x1017
                                           ;;unsigned compare: left < lit(0x14=20), size=1
                                           	MOVAI	0x14
                                           	RSUBAR	r0x1017
                                           	JBSET	PFLAG,0
                                           	GOTO	_00199_DS_
                                           ;;genSkipc:3291: created from rifx:013B5EFC
                                           ;	.line	294; "MC32P7311.c"	g_tmpbuff -= g_adcmax;			 // 去掉一个最大
                                           	MOVAR	r0x1013
                                           	RSUBAR	r0x1011
                                           	MOVRA	r0x1013
                                           	MOVAR	r0x1014
                                           	JBSET	PFLAG,0
                                           	INCAR	r0x1014
                                           	RSUBAR	r0x1012
                                           	MOVRA	r0x1014
                                           ;	.line	295; "MC32P7311.c"	g_tmpbuff -= g_adcmin;			 // 去掉一个最小
                                           	MOVAR	r0x1015
                                           	RSUBRA	r0x1013
                                           	MOVAR	r0x1016
                                           	JBSET	PFLAG,0
                                           	JZAR	r0x1016
                                           	RSUBRA	r0x1014
                                           ;	.line	296; "MC32P7311.c"	g_temp_value = (g_tmpbuff >> 4); // 除以16，取平均值
                                           	SWAPAR	r0x1013
                                           	ANDAI	0x0f
                                           	MOVRA	r0x1011
                                           	SWAPAR	r0x1014
                                           	MOVRA	r0x1012
                                           	ANDAI	0xf0
                                           	ORRA	r0x1011
                                           	XORRA	r0x1012
                                           ;	.line	298; "MC32P7311.c"	return g_temp_value;
                                           	MOVAR	r0x1011
                                           	MOVRA	STK00
                                           	MOVAR	r0x1012
                                           ;	.line	299; "MC32P7311.c"	}
                                           	RETURN	
                                           ; exit point of _adc_get_val
                                           
                                           ;***
                                           ;  pBlock Stats: dbName = C
                                           ;***
                                           ;entry:  _adc_sel_pin	;Function start
                                           ; 2 exit points
                                           ;has an exit
                                           ;functions called:
                                           ;   _delay_ms
                                           ;   _delay_ms
                                           ;3 compiler assigned registers:
                                           ;   STK02
                                           ;   STK01
                                           ;   STK00
                                           ;; Starting pCode block
                                           _adc_sel_pin	;Function start
                                           ; 2 exit points
                                           ;	.line	266; "MC32P7311.c"	delay_ms(1); // 切换adc检测的引脚后，要延时一段时间，防止意料之外的检测结果
                                           	MOVAI	0x01
                                           	MOVRA	STK02
                                           	MOVAI	0x00
                                           	MOVRA	STK01
                                           	MOVAI	0x00
                                           	MOVRA	STK00
                                           	MOVAI	0x00
                                           	CALL	_delay_ms
                                           ;	.line	267; "MC32P7311.c"	}
                                           	RETURN	
                                           ; exit point of _adc_sel_pin
                                           
                                           ;***
                                           ;  pBlock Stats: dbName = C
                                           ;***
                                           ;entry:  _adc_config	;Function start
                                           ; 2 exit points
                                           ;has an exit
                                           ;; Starting pCode block
                                           _adc_config	;Function start
                                           ; 2 exit points
                                           ;	.line	236; "MC32P7311.c"	P11PU = 0;
                                           	BCLR	_PUP1bits,1
                                           ;	.line	237; "MC32P7311.c"	P11PD = 0;
                                           	BCLR	_PDP1bits,1
                                           ;	.line	238; "MC32P7311.c"	P11OE = 0;	// 输入模式
                                           	BCLR	_OEP1bits,1
                                           ;	.line	239; "MC32P7311.c"	P11ANS = 1; // 模拟输入
                                           	BSET	_ANSEL0bits,6
                                           ;	.line	241; "MC32P7311.c"	ADCR0 = 0x0A;		// 12位精度、不启用ADC转换，不使能ADC
                                           	MOVAI	0x0a
                                           	MOVRA	_ADCR0
                                           ;	.line	242; "MC32P7311.c"	ADCR0 |= 0x03 << 5; // AIN6--P11
                                           	MOVAI	0x60
                                           	ORRA	_ADCR0
                                           ;	.line	247; "MC32P7311.c"	ADCR1 = 0xE1; // 125K采样（最高精度）  内部3V参考电压
                                           	MOVAI	0xe1
                                           	MOVRA	_ADCR1
                                           ;	.line	248; "MC32P7311.c"	ADCR2 = 0xFF; // ADC采样时间为15个ADC时钟
                                           	MOVAI	0xff
                                           	MOVRA	_ADCR2
                                           ;	.line	249; "MC32P7311.c"	ADON = 1;	  // 使能ADC
                                           	BSET	_ADCR0bits,0
                                           ;	.line	250; "MC32P7311.c"	}
                                           	RETURN	
                                           ; exit point of _adc_config
                                           
                                           ;***
                                           ;  pBlock Stats: dbName = C
                                           ;***
                                           ;entry:  _key_config	;Function start
                                           ; 2 exit points
                                           ;has an exit
                                           ;; Starting pCode block
                                           _key_config	;Function start
                                           ; 2 exit points
                                           ;	.line	215; "MC32P7311.c"	P05PU = 1;
                                           	BSET	_PUP0bits,5
                                           ;	.line	216; "MC32P7311.c"	P05OE = 0;
                                           	BCLR	_OEP0bits,5
                                           ;	.line	221; "MC32P7311.c"	P00PU = 1;
                                           	BSET	_PUP0bits,0
                                           ;	.line	222; "MC32P7311.c"	P00OE = 0;
                                           	BCLR	_OEP0bits,0
                                           ;	.line	224; "MC32P7311.c"	P01PU = 1;
                                           	BSET	_PUP0bits,1
                                           ;	.line	225; "MC32P7311.c"	P01OE = 0;
                                           	BCLR	_OEP0bits,1
                                           ;	.line	226; "MC32P7311.c"	}
                                           	RETURN	
                                           ; exit point of _key_config
                                           
                                           ;***
                                           ;  pBlock Stats: dbName = C
                                           ;***
                                           ;entry:  _timer2_pwm_config	;Function start
                                           ; 2 exit points
                                           ;has an exit
                                           ;; Starting pCode block
                                           _timer2_pwm_config	;Function start
                                           ; 2 exit points
                                           ;	.line	203; "MC32P7311.c"	T2LOAD = 52 - 1;
                                           	MOVAI	0x33
                                           	MOVRA	_T2LOAD
                                           ;	.line	204; "MC32P7311.c"	T2DATA = 20; // 占空比 == T1DATA / T1LOAD
                                           	MOVAI	0x14
                                           	MOVRA	_T2DATA
                                           ;	.line	205; "MC32P7311.c"	PWM2OE = 0;	 // 禁止PWM输出
                                           	BCLR	_T2CRbits,6
                                           ;	.line	207; "MC32P7311.c"	TC2EN = 1;
                                           	BSET	_T2CRbits,7
                                           ;	.line	208; "MC32P7311.c"	}
                                           	RETURN	
                                           ; exit point of _timer2_pwm_config
                                           
                                           ;***
                                           ;  pBlock Stats: dbName = C
                                           ;***
                                           ;entry:  _timer1_pwm_close	;Function start
                                           ; 2 exit points
                                           ;has an exit
                                           ;; Starting pCode block
                                           _timer1_pwm_close	;Function start
                                           ; 2 exit points
                                           ;	.line	177; "MC32P7311.c"	PWM1OE = 0;
                                           	BCLR	_T1CRbits,6
                                           ;	.line	178; "MC32P7311.c"	}
                                           	RETURN	
                                           ; exit point of _timer1_pwm_close
                                           
                                           ;***
                                           ;  pBlock Stats: dbName = C
                                           ;***
                                           ;entry:  _timer1_pwm_open	;Function start
                                           ; 2 exit points
                                           ;has an exit
                                           ;; Starting pCode block
                                           _timer1_pwm_open	;Function start
                                           ; 2 exit points
                                           ;	.line	171; "MC32P7311.c"	PWM1OE = 1;
                                           	BSET	_T1CRbits,6
                                           ;	.line	172; "MC32P7311.c"	}
                                           	RETURN	
                                           ; exit point of _timer1_pwm_open
                                           
                                           ;***
                                           ;  pBlock Stats: dbName = C
                                           ;***
                                           ;entry:  _timer1_pwm_config	;Function start
                                           ; 2 exit points
                                           ;has an exit
                                           ;; Starting pCode block
                                           _timer1_pwm_config	;Function start
                                           ; 2 exit points
                                           ;	.line	144; "MC32P7311.c"	T1CR |= 0x02; // 4分频
                                           	BSET	_T1CR,1
                                           ;	.line	145; "MC32P7311.c"	T1LOAD = 128 - 1;
                                           	MOVAI	0x7f
                                           	MOVRA	_T1LOAD
                                           ;	.line	146; "MC32P7311.c"	T1DATA = 25; // 占空比 == T1DATA / T1LOAD
                                           	MOVAI	0x19
                                           	MOVRA	_T1DATA
                                           ;	.line	147; "MC32P7311.c"	PWM1OE = 0;	 // 禁止PWM1输出
                                           	BCLR	_T1CRbits,6
                                           ;	.line	148; "MC32P7311.c"	TC1EN = 1;	 // 启动定时器
                                           	BSET	_T1CRbits,7
                                           ;	.line	166; "MC32P7311.c"	}
                                           	RETURN	
                                           ; exit point of _timer1_pwm_config
                                           
                                           ;***
                                           ;  pBlock Stats: dbName = C
                                           ;***
                                           ;entry:  _timer0_pwm_config	;Function start
                                           ; 2 exit points
                                           ;has an exit
                                           ;; Starting pCode block
                                           _timer0_pwm_config	;Function start
                                           ; 2 exit points
                                           ;	.line	114; "MC32P7311.c"	T0CR |= 0x02; // 4分频
                                           	BSET	_T0CR,1
                                           ;	.line	115; "MC32P7311.c"	T0LOAD = 128 - 1;
                                           	MOVAI	0x7f
                                           	MOVRA	_T0LOAD
                                           ;	.line	116; "MC32P7311.c"	T0DATA = 25; // 占空比 == T0DATA / T0LOAD
                                           	MOVAI	0x19
                                           	MOVRA	_T0DATA
                                           ;	.line	117; "MC32P7311.c"	PWM0OE = 0;	 // 禁止PWM输出
                                           	BCLR	_T0CRbits,6
                                           ;	.line	119; "MC32P7311.c"	TC0EN = 1; // 启动定时器
                                           	BSET	_T0CRbits,7
                                           ;	.line	137; "MC32P7311.c"	}
                                           	RETURN	
                                           ; exit point of _timer0_pwm_config
                                           
                                           ;***
                                           ;  pBlock Stats: dbName = C
                                           ;***
                                           ;entry:  _IO_Init	;Function start
                                           ; 2 exit points
                                           ;has an exit
                                           ;; Starting pCode block
                                           _IO_Init	;Function start
                                           ; 2 exit points
                                           ;	.line	94; "MC32P7311.c"	IOP0 = 0x00;   // io口数据位
                                           	CLRR	_IOP0
                                           ;	.line	95; "MC32P7311.c"	OEP0 = 0xFF;   // io口方向 1:out  0:in   P00、1输出为开漏
                                           	MOVAI	0xff
                                           	MOVRA	_OEP0
                                           ;	.line	96; "MC32P7311.c"	PUP0 = 0x00;   // io口上拉电阻   1:enable  0:disable
                                           	CLRR	_PUP0
                                           ;	.line	97; "MC32P7311.c"	PDP0 = 0x00;   // io口下拉电阻   1:enable  0:disable
                                           	CLRR	_PDP0
                                           ;	.line	98; "MC32P7311.c"	ANSEL0 = 0x00; // io类型选择  1:模拟输入  0:通用io
                                           	CLRR	_ANSEL0
                                           ;	.line	100; "MC32P7311.c"	IOP1 = 0x00;   // io口数据位
                                           	CLRR	_IOP1
                                           ;	.line	101; "MC32P7311.c"	OEP1 = 0xFF;   // io口方向 1:out  0:in   P13输出为开漏
                                           	MOVAI	0xff
                                           	MOVRA	_OEP1
                                           ;	.line	102; "MC32P7311.c"	PUP1 = 0x00;   // io口上拉电阻   1:enable  0:disable
                                           	CLRR	_PUP1
                                           ;	.line	103; "MC32P7311.c"	PDP1 = 0x00;   // io口下拉电阻   1:enable  0:disable
                                           	CLRR	_PDP1
                                           ;	.line	104; "MC32P7311.c"	ANSEL1 = 0x00; // io类型选择  1:模拟输入  0:通用io
                                           	CLRR	_ANSEL1
                                           ;	.line	106; "MC32P7311.c"	DRVCR = 0x80;
                                           	MOVAI	0x80
                                           	MOVRA	_DRVCR
                                           ;	.line	107; "MC32P7311.c"	}
                                           	RETURN	
                                           ; exit point of _IO_Init
                                           
                                           ;***
                                           ;  pBlock Stats: dbName = C
                                           ;***
                                           ;entry:  _CLR_RAM	;Function start
                                           ; 2 exit points
                                           ;has an exit
                                           ;; Starting pCode block
                                           _CLR_RAM	;Function start
                                           ; 2 exit points
                                           ;	.line	79; "MC32P7311.c"	for (FSR0 = 0; FSR0 < 0xff; FSR0++)
                                           	CLRR	_FSR0
                                           ;;unsigned compare: left < lit(0xFF=255), size=1
                                           _00147_DS_
                                           	MOVAI	0xff
                                           	RSUBAR	_FSR0
                                           	JBCLR	PFLAG,0
                                           	GOTO	_00145_DS_
                                           ;;genSkipc:3291: created from rifx:013B5EFC
                                           ;	.line	81; "MC32P7311.c"	INDF0 = 0x00;
                                           	CLRR	_INDF0
                                           ;	.line	79; "MC32P7311.c"	for (FSR0 = 0; FSR0 < 0xff; FSR0++)
                                           	INCR	_FSR0
                                           	GOTO	_00147_DS_
                                           _00145_DS_
                                           ;	.line	83; "MC32P7311.c"	FSR0 = 0xFF;
                                           	MOVAI	0xff
                                           	MOVRA	_FSR0
                                           ;	.line	84; "MC32P7311.c"	INDF0 = 0x00;
                                           	CLRR	_INDF0
                                           ;	.line	85; "MC32P7311.c"	}
                                           	RETURN	
                                           ; exit point of _CLR_RAM
                                           
                                           ;***
                                           ;  pBlock Stats: dbName = C
                                           ;***
                                           ;entry:  _send_32bits_data_by_irsir	;Function start
                                           ; 2 exit points
                                           ;has an exit
                                           ;functions called:
                                           ;   _delay_ms
                                           ;   _delay_ms
                                           ;   _delay_ms
                                           ;   _delay_ms
                                           ;   _delay_ms
                                           ;   _delay_ms
                                           ;   _delay_ms
                                           ;   _delay_ms
                                           ;   _delay_ms
                                           ;   _delay_ms
                                           ;   _delay_ms
                                           ;   _delay_ms
                                           ;12 compiler assigned registers:
                                           ;   r0x101E
                                           ;   STK00
                                           ;   r0x101F
                                           ;   STK01
                                           ;   r0x1020
                                           ;   STK02
                                           ;   r0x1021
                                           ;   r0x1022
                                           ;   r0x1023
                                           ;   r0x1024
                                           ;   r0x1025
                                           ;   r0x1026
                                           ;; Starting pCode block
                                           _send_32bits_data_by_irsir	;Function start
                                           ; 2 exit points
                                           ;	.line	32; "MC32P7311.c"	void send_32bits_data_by_irsir(u32 send_data)
                                           	MOVRA	r0x101E
                                           	MOVAR	STK00
                                           	MOVRA	r0x101F
                                           	MOVAR	STK01
                                           	MOVRA	r0x1020
                                           	MOVAR	STK02
                                           	MOVRA	r0x1021
                                           ;	.line	36; "MC32P7311.c"	P10D = 1;
                                           	BSET	_IOP1bits,0
                                           ;	.line	37; "MC32P7311.c"	delay_ms(15);
                                           	MOVAI	0x0f
                                           	MOVRA	STK02
                                           	MOVAI	0x00
                                           	MOVRA	STK01
                                           	MOVAI	0x00
                                           	MOVRA	STK00
                                           	MOVAI	0x00
                                           	CALL	_delay_ms
                                           ;	.line	39; "MC32P7311.c"	P10D = 0;
                                           	BCLR	_IOP1bits,0
                                           ;	.line	40; "MC32P7311.c"	delay_ms(7); // 延时4.5ms
                                           	MOVAI	0x07
                                           	MOVRA	STK02
                                           	MOVAI	0x00
                                           	MOVRA	STK01
                                           	MOVAI	0x00
                                           	MOVRA	STK00
                                           	MOVAI	0x00
                                           	CALL	_delay_ms
                                           ;	.line	42; "MC32P7311.c"	for (u8 i = 0; i < 32; i++)
                                           	CLRR	r0x1022
                                           ;;unsigned compare: left < lit(0x20=32), size=1
                                           _00121_DS_
                                           	MOVAI	0x20
                                           	RSUBAR	r0x1022
                                           	JBCLR	PFLAG,0
                                           	GOTO	_00119_DS_
                                           ;;genSkipc:3291: created from rifx:013B5EFC
                                           ;	.line	44; "MC32P7311.c"	if ((send_data >> i) & 0x01)
                                           	MOVAR	r0x101E
                                           	MOVRA	r0x1023
                                           	MOVAR	r0x101F
                                           	MOVRA	r0x1024
                                           	MOVAR	r0x1020
                                           	MOVRA	r0x1025
                                           	MOVAR	r0x1021
                                           	MOVRA	r0x1026
                                           	MOVAR	r0x1022
                                           	ISUBAI	0x00
                                           	JBCLR	PFLAG,2
                                           	GOTO	_00140_DS_
                                           _00139_DS_
                                           	RRR	r0x1023
                                           	RRR	r0x1024
                                           	RRR	r0x1025
                                           	RRR	r0x1026
                                           	ADDAI	0x01
                                           	JBSET	PFLAG,0
                                           	GOTO	_00139_DS_
                                           _00140_DS_
                                           	JBSET	r0x1026,0
                                           	GOTO	_00117_DS_
                                           ;	.line	48; "MC32P7311.c"	P10D = 1;
                                           	BSET	_IOP1bits,0
                                           ;	.line	49; "MC32P7311.c"	delay_ms(6); //
                                           	MOVAI	0x06
                                           	MOVRA	STK02
                                           	MOVAI	0x00
                                           	MOVRA	STK01
                                           	MOVAI	0x00
                                           	MOVRA	STK00
                                           	MOVAI	0x00
                                           	CALL	_delay_ms
                                           ;	.line	51; "MC32P7311.c"	P10D = 0;
                                           	BCLR	_IOP1bits,0
                                           ;	.line	52; "MC32P7311.c"	delay_ms(17); //
                                           	MOVAI	0x11
                                           	MOVRA	STK02
                                           	MOVAI	0x00
                                           	MOVRA	STK01
                                           	MOVAI	0x00
                                           	MOVRA	STK00
                                           	MOVAI	0x00
                                           	CALL	_delay_ms
                                           	GOTO	_00122_DS_
                                           _00117_DS_
                                           ;	.line	58; "MC32P7311.c"	P10D = 1;
                                           	BSET	_IOP1bits,0
                                           ;	.line	59; "MC32P7311.c"	delay_ms(6); //
                                           	MOVAI	0x06
                                           	MOVRA	STK02
                                           	MOVAI	0x00
                                           	MOVRA	STK01
                                           	MOVAI	0x00
                                           	MOVRA	STK00
                                           	MOVAI	0x00
                                           	CALL	_delay_ms
                                           ;	.line	61; "MC32P7311.c"	P10D = 0;
                                           	BCLR	_IOP1bits,0
                                           ;	.line	62; "MC32P7311.c"	delay_ms(6); //
                                           	MOVAI	0x06
                                           	MOVRA	STK02
                                           	MOVAI	0x00
                                           	MOVRA	STK01
                                           	MOVAI	0x00
                                           	MOVRA	STK00
                                           	MOVAI	0x00
                                           	CALL	_delay_ms
                                           _00122_DS_
                                           ;	.line	42; "MC32P7311.c"	for (u8 i = 0; i < 32; i++)
                                           	INCR	r0x1022
                                           	GOTO	_00121_DS_
                                           _00119_DS_
                                           ;	.line	68; "MC32P7311.c"	P10D = 0;
                                           	BCLR	_IOP1bits,0
                                           ;	.line	69; "MC32P7311.c"	}
                                           	RETURN	
                                           ; exit point of _send_32bits_data_by_irsir
                                           
                                           ;***
                                           ;  pBlock Stats: dbName = C
                                           ;***
                                           ;entry:  _delay_ms	;Function start
                                           ; 2 exit points
                                           ;has an exit
                                           ;15 compiler assigned registers:
                                           ;   r0x1004
                                           ;   STK00
                                           ;   r0x1005
                                           ;   STK01
                                           ;   r0x1006
                                           ;   STK02
                                           ;   r0x1007
                                           ;   r0x1008
                                           ;   r0x1009
                                           ;   r0x100A
                                           ;   r0x100B
                                           ;   r0x100C
                                           ;   r0x100D
                                           ;   r0x100E
                                           ;   r0x100F
                                           ;; Starting pCode block
                                           _delay_ms	;Function start
                                           ; 2 exit points
                                           ;	.line	15; "MC32P7311.c"	void delay_ms(u32 xms)
                                           	MOVRA	r0x1004
                                           	MOVAR	STK00
                                           	MOVRA	r0x1005
                                           	MOVAR	STK01
                                           	MOVRA	r0x1006
                                           	MOVAR	STK02
                                           	MOVRA	r0x1007
                                           _00108_DS_
                                           ;	.line	17; "MC32P7311.c"	while (xms)
                                           	MOVAR	r0x1007
                                           	ORAR	r0x1006
                                           	ORAR	r0x1005
                                           	ORAR	r0x1004
                                           	JBCLR	PFLAG,2
                                           	GOTO	_00111_DS_
                                           ;	.line	20; "MC32P7311.c"	while (i--)
                                           	MOVAI	0x1f
                                           	MOVRA	r0x1008
                                           	MOVAI	0x01
                                           	MOVRA	r0x1009
                                           	CLRR	r0x100A
                                           	CLRR	r0x100B
                                           _00105_DS_
                                           	MOVAR	r0x1008
                                           	MOVRA	r0x100C
                                           	MOVAR	r0x1009
                                           	MOVRA	r0x100D
                                           	MOVAR	r0x100A
                                           	MOVRA	r0x100E
                                           	MOVAR	r0x100B
                                           	MOVRA	r0x100F
                                           	MOVAI	0xff
                                           	ADDRA	r0x1008
                                           	MOVAI	0xff
                                           	JBSET	PFLAG,0
                                           	ADDRA	r0x1009
                                           	MOVAI	0xff
                                           	JBSET	PFLAG,0
                                           	ADDRA	r0x100A
                                           	MOVAI	0xff
                                           	JBSET	PFLAG,0
                                           	ADDRA	r0x100B
                                           	MOVAR	r0x100C
                                           	ORAR	r0x100D
                                           	ORAR	r0x100E
                                           	ORAR	r0x100F
                                           	JBCLR	PFLAG,2
                                           	GOTO	_00107_DS_
                                           ;	.line	22; "MC32P7311.c"	Nop();
                                           	nop	
                                           ;	.line	25; "MC32P7311.c"	__endasm;
                                           	;
                                           	CLRWDT;
                                           	
                                           	GOTO	_00105_DS_
                                           _00107_DS_
                                           ;	.line	27; "MC32P7311.c"	xms--;
                                           	MOVAI	0xff
                                           	ADDRA	r0x1007
                                           	MOVAI	0xff
                                           	JBSET	PFLAG,0
                                           	ADDRA	r0x1006
                                           	MOVAI	0xff
                                           	JBSET	PFLAG,0
                                           	ADDRA	r0x1005
                                           	MOVAI	0xff
                                           	JBSET	PFLAG,0
                                           	ADDRA	r0x1004
                                           	GOTO	_00108_DS_
                                           _00111_DS_
                                           ;	.line	29; "MC32P7311.c"	}
                                           	RETURN	
                                           ; exit point of _delay_ms
                                           
                                           
                                           ;	code size estimation:
                                           ;	  520+    0 =   520 instructions ( 1040 byte)
                                           
                                           	end


MEMORY USAGE MAP ('X' = Used,  '-' = Unused)

0000 : XXXXXXXX-------- XXXXXXXXXXXXXXXX XXXXXXXXXXXXXXXX XXXXXXXXXXXXXXXX
0040 : XXXXXXXXXXXXXXXX XXXXXXXXXXXXXXXX XXXXXXXXXXXXXXXX XXXXXXXXXXXXXXXX
0080 : XXXXXXXXXXXXXXXX XXXXXXXXXXXXXXXX XXXXXXXXXXXXXXXX XXXXXXXXXXXXXXXX
00C0 : XXXXXXXXXXXXXXXX XXXXXXXXXXXXXXXX XXXXXXXXXXXXXXXX XXXXXXXXXXXXXXXX
0100 : XXXXXXXXXXXXXXXX XXXXXXXXXXXXXXXX XXXXXXXXXXXXXXXX XXXXXXXXXXXXXXXX
0140 : XXXXXXXXXXXXXXXX XXXXXXXXXXXXXXXX XXXXXXXXXXXXXXXX XXXXXXXXXXXXXXXX
0180 : XXXXXXXXXXXXXXXX XXXXXXXXXXXXXXXX XXXXXXXXXXXXXXXX XXXXXXXXXXXXXXXX
01C0 : XXXXXXXXXXXXXXXX XXXXXXXXXXXXXXXX XXXXXXXXXXXXXXXX XXXXXXXXXXXXXXXX
0200 : XXXXXXXXXXXXXXXX XXXXXXXXXXXXXXXX XXXXXXXXXXXXXXXX XXXXXXXXXXXXXXXX
0240 : XXXXXXXXXXXXXXXX XXXXXXXXXXXXXXXX XXXXXXXXXXXXXXXX XXXXXXXXXXXXXXXX
0280 : XXXXXXXXXXXXXXXX XXXXXXXXXXXXXXXX XXXXXXXXXXXXXXXX XXXXXXXXXXXXXXXX
02C0 : XXXXXXXXXXXXXXXX XXXXXXXXXXXXXXXX XXXXXXXXXXXXXXXX XXXXXXXXXXXXXXXX
0300 : XXXXXXXXXXXXXXXX XXXXXXXXXXXXXXXX XXXXXXXXXXXXXXXX XXXXXXXXXXXXXXXX
0340 : XXXXXXXXXXXXXXXX XXXXXXXXXXXXXXXX XXXXXXXXXXXXXXXX XXXXXXXXXXXXXXXX
0380 : XXXXXXXXXXXXXXXX XXXXXXXXXXXXXXXX XXXXXXXXXXXXXXXX XXXXXXXXXXXXXXXX
03C0 : XXXXXXXXXXXXXXXX XXXXXXXXXXXXXXXX XXXXXXXXXXXXXXXX XXXXXXXXXXXXXXXX
0400 : XXXXXXXXXXXXXXXX XXXXXXXXXXXXXXXX XXXXXXXXXXXXXXXX XXXX------------

All other memory blocks unused.

Program Memory Words Used:   534

